TI ARM Assembler PC v16.9.6 Fri Mar 20 15:43:33 2026

Tools Copyright (c) 1996-2017 Texas Instruments Incorporated
Clock.asm                                                            PAGE    1

       1                    ;******************************************************************************
       2                    ;* TI ARM C/C++ Codegen                                        PC v16.9.6.LTS *
       3                    ;* Date/Time created: Fri Mar 20 15:43:33 2026                                *
       4                    ;******************************************************************************
       5                            .compiler_opts --abi=eabi --arm_vmrs_si_workaround=off --code_state=16 --diag_wrap=off --embed
       6 00000000                   .thumb
       7                    
       8                    $C$DW$CU        .dwtag  DW_TAG_compile_unit
       9                            .dwattr $C$DW$CU, DW_AT_name("D:/CE2007/inc/Clock.c")
      10                            .dwattr $C$DW$CU, DW_AT_producer("TI TI ARM C/C++ Codegen PC v16.9.6.LTS Copyright (c) 1996-20
      11                            .dwattr $C$DW$CU, DW_AT_TI_version(0x01)
      12                            .dwattr $C$DW$CU, DW_AT_comp_dir("D:\CE2007\Lab1_C_Programming\Debug")
      13                            .global ClockFrequency
      14 00000000                   .data
      15                            .align  4
      16                            .elfsym ClockFrequency,SYM_SIZE(4)
      17 00000000           ClockFrequency:
      18 00000000 002DC6C0          .bits   3000000,32                      ; ClockFrequency @ 0
      19                    
      20                    $C$DW$1 .dwtag  DW_TAG_variable
      21                            .dwattr $C$DW$1, DW_AT_name("ClockFrequency")
      22                            .dwattr $C$DW$1, DW_AT_TI_symbol_name("ClockFrequency")
      23                            .dwattr $C$DW$1, DW_AT_location[DW_OP_addr ClockFrequency]
      24                            .dwattr $C$DW$1, DW_AT_type(*$C$DW$T$19)
      25                            .dwattr $C$DW$1, DW_AT_external
      26                            .dwattr $C$DW$1, DW_AT_decl_file("D:/CE2007/inc/Clock.c")
      27                            .dwattr $C$DW$1, DW_AT_decl_line(0x2f)
      28                            .dwattr $C$DW$1, DW_AT_decl_column(0x0a)
      29                    
      30                            .global Prewait
      31 00000004                   .data
      32                            .align  4
      33                            .elfsym Prewait,SYM_SIZE(4)
      34 00000004           Prewait:
      35 00000004 00000000          .bits   0,32                    ; Prewait @ 0
      36                    
      37                    $C$DW$2 .dwtag  DW_TAG_variable
      38                            .dwattr $C$DW$2, DW_AT_name("Prewait")
      39                            .dwattr $C$DW$2, DW_AT_TI_symbol_name("Prewait")
      40                            .dwattr $C$DW$2, DW_AT_location[DW_OP_addr Prewait]
      41                            .dwattr $C$DW$2, DW_AT_type(*$C$DW$T$19)
      42                            .dwattr $C$DW$2, DW_AT_external
      43                            .dwattr $C$DW$2, DW_AT_decl_file("D:/CE2007/inc/Clock.c")
      44                            .dwattr $C$DW$2, DW_AT_decl_line(0x3a)
      45                            .dwattr $C$DW$2, DW_AT_decl_column(0x0a)
      46                    
      47                            .global CPMwait
      48 00000008                   .data
      49                            .align  4
      50                            .elfsym CPMwait,SYM_SIZE(4)
      51 00000008           CPMwait:
      52 00000008 00000000          .bits   0,32                    ; CPMwait @ 0
      53                    
      54                    $C$DW$3 .dwtag  DW_TAG_variable
      55                            .dwattr $C$DW$3, DW_AT_name("CPMwait")
TI ARM Assembler PC v16.9.6 Fri Mar 20 15:43:33 2026

Tools Copyright (c) 1996-2017 Texas Instruments Incorporated
Clock.asm                                                            PAGE    2

      56                            .dwattr $C$DW$3, DW_AT_TI_symbol_name("CPMwait")
      57                            .dwattr $C$DW$3, DW_AT_location[DW_OP_addr CPMwait]
      58                            .dwattr $C$DW$3, DW_AT_type(*$C$DW$T$19)
      59                            .dwattr $C$DW$3, DW_AT_external
      60                            .dwattr $C$DW$3, DW_AT_decl_file("D:/CE2007/inc/Clock.c")
      61                            .dwattr $C$DW$3, DW_AT_decl_line(0x3b)
      62                            .dwattr $C$DW$3, DW_AT_decl_column(0x0a)
      63                    
      64                            .global Postwait
      65 0000000c                   .data
      66                            .align  4
      67                            .elfsym Postwait,SYM_SIZE(4)
      68 0000000c           Postwait:
      69 0000000c 00000000          .bits   0,32                    ; Postwait @ 0
      70                    
      71                    $C$DW$4 .dwtag  DW_TAG_variable
      72                            .dwattr $C$DW$4, DW_AT_name("Postwait")
      73                            .dwattr $C$DW$4, DW_AT_TI_symbol_name("Postwait")
      74                            .dwattr $C$DW$4, DW_AT_location[DW_OP_addr Postwait]
      75                            .dwattr $C$DW$4, DW_AT_type(*$C$DW$T$19)
      76                            .dwattr $C$DW$4, DW_AT_external
      77                            .dwattr $C$DW$4, DW_AT_decl_file("D:/CE2007/inc/Clock.c")
      78                            .dwattr $C$DW$4, DW_AT_decl_line(0x3c)
      79                            .dwattr $C$DW$4, DW_AT_decl_column(0x0a)
      80                    
      81                            .global IFlags
      82 00000010                   .data
      83                            .align  4
      84                            .elfsym IFlags,SYM_SIZE(4)
      85 00000010           IFlags:
      86 00000010 00000000          .bits   0,32                    ; IFlags @ 0
      87                    
      88                    $C$DW$5 .dwtag  DW_TAG_variable
      89                            .dwattr $C$DW$5, DW_AT_name("IFlags")
      90                            .dwattr $C$DW$5, DW_AT_TI_symbol_name("IFlags")
      91                            .dwattr $C$DW$5, DW_AT_location[DW_OP_addr IFlags]
      92                            .dwattr $C$DW$5, DW_AT_type(*$C$DW$T$19)
      93                            .dwattr $C$DW$5, DW_AT_external
      94                            .dwattr $C$DW$5, DW_AT_decl_file("D:/CE2007/inc/Clock.c")
      95                            .dwattr $C$DW$5, DW_AT_decl_line(0x3d)
      96                            .dwattr $C$DW$5, DW_AT_decl_column(0x0a)
      97                    
      98                            .global Crystalstable
      99 00000014                   .data
     100                            .align  4
     101                            .elfsym Crystalstable,SYM_SIZE(4)
     102 00000014           Crystalstable:
     103 00000014 00000000          .bits   0,32                    ; Crystalstable @ 0
     104                    
     105                    $C$DW$6 .dwtag  DW_TAG_variable
     106                            .dwattr $C$DW$6, DW_AT_name("Crystalstable")
     107                            .dwattr $C$DW$6, DW_AT_TI_symbol_name("Crystalstable")
     108                            .dwattr $C$DW$6, DW_AT_location[DW_OP_addr Crystalstable]
     109                            .dwattr $C$DW$6, DW_AT_type(*$C$DW$T$19)
     110                            .dwattr $C$DW$6, DW_AT_external
TI ARM Assembler PC v16.9.6 Fri Mar 20 15:43:33 2026

Tools Copyright (c) 1996-2017 Texas Instruments Incorporated
Clock.asm                                                            PAGE    3

     111                            .dwattr $C$DW$6, DW_AT_decl_file("D:/CE2007/inc/Clock.c")
     112                            .dwattr $C$DW$6, DW_AT_decl_line(0x3e)
     113                            .dwattr $C$DW$6, DW_AT_decl_column(0x0a)
     114                    
     115                    ;       C:\ti\ccsv7\tools\compiler\ti-cgt-arm_16.9.6.LTS\bin\armacpia.exe -@C:\\Users\\KOOMPA~1\\AppDa
     116 00000000                   .sect   ".text"
     117                            .clink
     118                            .thumbfunc Clock_Init48MHz
     119 00000000                   .thumb
     120                            .global Clock_Init48MHz
     121                    
     122                    $C$DW$7 .dwtag  DW_TAG_subprogram
     123                            .dwattr $C$DW$7, DW_AT_name("Clock_Init48MHz")
     124                            .dwattr $C$DW$7, DW_AT_low_pc(Clock_Init48MHz)
     125                            .dwattr $C$DW$7, DW_AT_high_pc(0x00)
     126                            .dwattr $C$DW$7, DW_AT_TI_symbol_name("Clock_Init48MHz")
     127                            .dwattr $C$DW$7, DW_AT_external
     128                            .dwattr $C$DW$7, DW_AT_TI_begin_file("D:/CE2007/inc/Clock.c")
     129                            .dwattr $C$DW$7, DW_AT_TI_begin_line(0x3f)
     130                            .dwattr $C$DW$7, DW_AT_TI_begin_column(0x06)
     131                            .dwattr $C$DW$7, DW_AT_decl_file("D:/CE2007/inc/Clock.c")
     132                            .dwattr $C$DW$7, DW_AT_decl_line(0x3f)
     133                            .dwattr $C$DW$7, DW_AT_decl_column(0x06)
     134                            .dwattr $C$DW$7, DW_AT_TI_max_frame_size(0x00)
     135                            .dwpsn  file "D:/CE2007/inc/Clock.c",line 63,column 27,is_stmt,address Clock_Init48MHz,isa 1
     136                    
     137                            .dwfde $C$DW$CIE, Clock_Init48MHz
     138                    
     139                    ;*****************************************************************************
     140                    ;* FUNCTION NAME: Clock_Init48MHz                                            *
     141                    ;*                                                                           *
     142                    ;*   Regs Modified     : A1,A2,A3,A4,SR                                      *
     143                    ;*   Regs Used         : A1,A2,A3,A4,LR,SR                                   *
     144                    ;*   Local Frame Size  : 0 Args + 0 Auto + 0 Save = 0 byte                   *
     145                    ;*****************************************************************************
     146 00000000           Clock_Init48MHz:
     147                    ;* --------------------------------------------------------------------------*
     148                            .dwcfi  cfa_offset, 0
     149                            .dwpsn  file "D:/CE2007/inc/Clock.c",line 65,column 3,is_stmt,isa 1
     150 00000000 E009              B         ||$C$L2||             ; [DPU_3_PIPE] |65|  ; [ORIG 16-BIT INS]
     151                            ; BRANCH OCCURS {||$C$L2||}      ; [] |65| 
     152                    ;* --------------------------------------------------------------------------*
     153 00000002           ||$C$L1||:    
     154                            .dwpsn  file "D:/CE2007/inc/Clock.c",line 67,column 5,is_stmt,isa 1
     155 00000002 485E              LDR       A1, $C$CON1           ; [DPU_3_PIPE] |67|  ; [ORIG 16-BIT INS]
     156 00000004 495D              LDR       A2, $C$CON1           ; [DPU_3_PIPE] |67|  ; [ORIG 16-BIT INS]
     157 00000006 6800              LDR       A1, [A1, #0]          ; [DPU_3_PIPE] |67|  ; [ORIG 16-BIT INS]
     158 00000008 1C40              ADDS      A1, A1, #1            ; [DPU_3_PIPE] |67|  ; [ORIG 16-BIT INS]
     159 0000000a 6008              STR       A1, [A2, #0]          ; [DPU_3_PIPE] |67|  ; [ORIG 16-BIT INS]
     160                            .dwpsn  file "D:/CE2007/inc/Clock.c",line 68,column 5,is_stmt,isa 1
     161 0000000c 485B              LDR       A1, $C$CON1           ; [DPU_3_PIPE] |68|  ; [ORIG 16-BIT INS]
     162 0000000e 495C              LDR       A2, $C$CON2           ; [DPU_3_PIPE] |68|  ; [ORIG 16-BIT INS]
     163 00000010 6800              LDR       A1, [A1, #0]          ; [DPU_3_PIPE] |68|  ; [ORIG 16-BIT INS]
     164 00000012 4281              CMP       A2, A1                ; [DPU_3_PIPE] |68|  ; [ORIG 16-BIT INS]
     165 00000014 D97E              BLS       ||$C$L9||             ; [DPU_3_PIPE] |68|  ; [ORIG 16-BIT INS]
TI ARM Assembler PC v16.9.6 Fri Mar 20 15:43:33 2026

Tools Copyright (c) 1996-2017 Texas Instruments Incorporated
Clock.asm                                                            PAGE    4

     166                            ; BRANCHCC OCCURS {||$C$L9||}    ; [] |68| 
     167                    ;* --------------------------------------------------------------------------*
     168                            .dwpsn  file "D:/CE2007/inc/Clock.c",line 69,column 7,is_stmt,isa 1
     169                    ;* --------------------------------------------------------------------------*
     170                    ;*   BEGIN LOOP ||$C$L2||
     171                    ;* --------------------------------------------------------------------------*
     172 00000016           ||$C$L2||:    
     173                            .dwpsn  file "D:/CE2007/inc/Clock.c",line 65,column 3,is_stmt,isa 1
     174 00000016 485B              LDR       A1, $C$CON3           ; [DPU_3_PIPE] |65|  ; [ORIG 16-BIT INS]
     175 00000018 6800              LDR       A1, [A1, #0]          ; [DPU_3_PIPE] |65|  ; [ORIG 16-BIT INS]
     176 0000001a 0A40              LSRS      A1, A1, #9            ; [DPU_3_PIPE] |65|  ; [ORIG 16-BIT INS]
     177 0000001c D2F1              BCS       ||$C$L1||             ; [DPU_3_PIPE] |65|  ; [ORIG 16-BIT INS]
     178                            ; BRANCHCC OCCURS {||$C$L1||}    ; [] |65| 
     179                    ;* --------------------------------------------------------------------------*
     180                            .dwpsn  file "D:/CE2007/inc/Clock.c",line 73,column 3,is_stmt,isa 1
     181 0000001e 485A              LDR       A1, $C$CON4           ; [DPU_3_PIPE] |73|  ; [ORIG 16-BIT INS]
     182 00000020 495A              LDR       A2, $C$CON5           ; [DPU_3_PIPE] |73|  ; [ORIG 16-BIT INS]
     183 00000022 6803              LDR       A4, [A1, #0]          ; [DPU_3_PIPE] |73|  ; [ORIG 16-BIT INS]
     184 00000024 4A58              LDR       A3, $C$CON4           ; [DPU_3_PIPE] |73|  ; [ORIG 16-BIT INS]
     185 00000026 70F0F64F          MOV       A1, #65520            ; [DPU_3_PIPE] |73|  ; [KEEP 32-BIT INS]
     186 0000002a 4018              ANDS      A1, A1, A4            ; [DPU_3_PIPE] |73|  ; [ORIG 16-BIT INS]
     187 0000002c 4301              ORRS      A2, A2, A1            ; [DPU_3_PIPE] |73|  ; [ORIG 16-BIT INS]
     188 0000002e 6011              STR       A2, [A3, #0]          ; [DPU_3_PIPE] |73|  ; [ORIG 16-BIT INS]
     189                            .dwpsn  file "D:/CE2007/inc/Clock.c",line 78,column 3,is_stmt,isa 1
     190 00000030 4857              LDR       A1, $C$CON6           ; [DPU_3_PIPE] |78|  ; [ORIG 16-BIT INS]
     191 00000032 6800              LDR       A1, [A1, #0]          ; [DPU_3_PIPE] |78|  ; [ORIG 16-BIT INS]
     192 00000034 08C0              LSRS      A1, A1, #3            ; [DPU_3_PIPE] |78|  ; [ORIG 16-BIT INS]
     193 00000036 D311              BCC       ||$C$L4||             ; [DPU_3_PIPE] |78|  ; [ORIG 16-BIT INS]
     194                            ; BRANCHCC OCCURS {||$C$L4||}    ; [] |78| 
     195                    ;* --------------------------------------------------------------------------*
     196                            .dwpsn  file "D:/CE2007/inc/Clock.c",line 79,column 5,is_stmt,isa 1
     197 00000038 4855              LDR       A1, $C$CON6           ; [DPU_3_PIPE] |79|  ; [ORIG 16-BIT INS]
     198 0000003a 4956              LDR       A2, $C$CON7           ; [DPU_3_PIPE] |79|  ; [ORIG 16-BIT INS]
     199 0000003c 6800              LDR       A1, [A1, #0]          ; [DPU_3_PIPE] |79|  ; [ORIG 16-BIT INS]
     200 0000003e 6008              STR       A1, [A2, #0]          ; [DPU_3_PIPE] |79|  ; [ORIG 16-BIT INS]
     201                            .dwpsn  file "D:/CE2007/inc/Clock.c",line 80,column 5,is_stmt,isa 1
     202 00000040 4955              LDR       A2, $C$CON8           ; [DPU_3_PIPE] |80|  ; [ORIG 16-BIT INS]
     203 00000042 2004              MOVS      A1, #4                ; [DPU_3_PIPE] |80|  ; [ORIG 16-BIT INS]
     204 00000044 6008              STR       A1, [A2, #0]          ; [DPU_3_PIPE] |80|  ; [ORIG 16-BIT INS]
     205                            .dwpsn  file "D:/CE2007/inc/Clock.c",line 83,column 5,is_stmt,isa 1
     206 00000046 E065              B         ||$C$L9||             ; [DPU_3_PIPE] |83|  ; [ORIG 16-BIT INS]
     207                            ; BRANCH OCCURS {||$C$L9||}      ; [] |83| 
     208                    ;* --------------------------------------------------------------------------*
     209                    ;* --------------------------------------------------------------------------*
     210 00000048           ||$C$L3||:    
     211                            .dwpsn  file "D:/CE2007/inc/Clock.c",line 87,column 5,is_stmt,isa 1
     212 00000048 4854              LDR       A1, $C$CON9           ; [DPU_3_PIPE] |87|  ; [ORIG 16-BIT INS]
     213 0000004a 4954              LDR       A2, $C$CON9           ; [DPU_3_PIPE] |87|  ; [ORIG 16-BIT INS]
     214 0000004c 6800              LDR       A1, [A1, #0]          ; [DPU_3_PIPE] |87|  ; [ORIG 16-BIT INS]
     215 0000004e 1C40              ADDS      A1, A1, #1            ; [DPU_3_PIPE] |87|  ; [ORIG 16-BIT INS]
     216 00000050 6008              STR       A1, [A2, #0]          ; [DPU_3_PIPE] |87|  ; [ORIG 16-BIT INS]
     217                            .dwpsn  file "D:/CE2007/inc/Clock.c",line 88,column 5,is_stmt,isa 1
     218 00000052 4852              LDR       A1, $C$CON9           ; [DPU_3_PIPE] |88|  ; [ORIG 16-BIT INS]
     219 00000054 4952              LDR       A2, $C$CON10          ; [DPU_3_PIPE] |88|  ; [ORIG 16-BIT INS]
     220 00000056 6800              LDR       A1, [A1, #0]          ; [DPU_3_PIPE] |88|  ; [ORIG 16-BIT INS]
TI ARM Assembler PC v16.9.6 Fri Mar 20 15:43:33 2026

Tools Copyright (c) 1996-2017 Texas Instruments Incorporated
Clock.asm                                                            PAGE    5

     221 00000058 4281              CMP       A2, A1                ; [DPU_3_PIPE] |88|  ; [ORIG 16-BIT INS]
     222 0000005a D95B              BLS       ||$C$L9||             ; [DPU_3_PIPE] |88|  ; [ORIG 16-BIT INS]
     223                            ; BRANCHCC OCCURS {||$C$L9||}    ; [] |88| 
     224                    ;* --------------------------------------------------------------------------*
     225                            .dwpsn  file "D:/CE2007/inc/Clock.c",line 89,column 7,is_stmt,isa 1
     226                    ;* --------------------------------------------------------------------------*
     227                    ;*   BEGIN LOOP ||$C$L4||
     228                    ;* --------------------------------------------------------------------------*
     229 0000005c           ||$C$L4||:    
     230                            .dwpsn  file "D:/CE2007/inc/Clock.c",line 86,column 9,is_stmt,isa 1
     231 0000005c 484A              LDR       A1, $C$CON4           ; [DPU_3_PIPE] |86|  ; [ORIG 16-BIT INS]
     232 0000005e 6800              LDR       A1, [A1, #0]          ; [DPU_3_PIPE] |86|  ; [ORIG 16-BIT INS]
     233 00000060 507CF400          AND       A1, A1, #16128        ; [DPU_3_PIPE] |86|  ; [KEEP 32-BIT INS]
     234 00000064 7F80F5B0          CMP       A1, #256              ; [DPU_3_PIPE] |86|  ; [KEEP 32-BIT INS]
     235 00000068 D1EE              BNE       ||$C$L3||             ; [DPU_3_PIPE] |86|  ; [ORIG 16-BIT INS]
     236                            ; BRANCHCC OCCURS {||$C$L3||}    ; [] |86| 
     237                    ;* --------------------------------------------------------------------------*
     238                            .dwpsn  file "D:/CE2007/inc/Clock.c",line 93,column 3,is_stmt,isa 1
     239 0000006a E009              B         ||$C$L6||             ; [DPU_3_PIPE] |93|  ; [ORIG 16-BIT INS]
     240                            ; BRANCH OCCURS {||$C$L6||}      ; [] |93| 
     241                    ;* --------------------------------------------------------------------------*
     242 0000006c           ||$C$L5||:    
     243                            .dwpsn  file "D:/CE2007/inc/Clock.c",line 94,column 5,is_stmt,isa 1
     244 0000006c 484D              LDR       A1, $C$CON11          ; [DPU_3_PIPE] |94|  ; [ORIG 16-BIT INS]
     245 0000006e 494D              LDR       A2, $C$CON11          ; [DPU_3_PIPE] |94|  ; [ORIG 16-BIT INS]
     246 00000070 6800              LDR       A1, [A1, #0]          ; [DPU_3_PIPE] |94|  ; [ORIG 16-BIT INS]
     247 00000072 1C40              ADDS      A1, A1, #1            ; [DPU_3_PIPE] |94|  ; [ORIG 16-BIT INS]
     248 00000074 6008              STR       A1, [A2, #0]          ; [DPU_3_PIPE] |94|  ; [ORIG 16-BIT INS]
     249                            .dwpsn  file "D:/CE2007/inc/Clock.c",line 95,column 5,is_stmt,isa 1
     250 00000076 484B              LDR       A1, $C$CON11          ; [DPU_3_PIPE] |95|  ; [ORIG 16-BIT INS]
     251 00000078 4941              LDR       A2, $C$CON2           ; [DPU_3_PIPE] |95|  ; [ORIG 16-BIT INS]
     252 0000007a 6800              LDR       A1, [A1, #0]          ; [DPU_3_PIPE] |95|  ; [ORIG 16-BIT INS]
     253 0000007c 4281              CMP       A2, A1                ; [DPU_3_PIPE] |95|  ; [ORIG 16-BIT INS]
     254 0000007e D949              BLS       ||$C$L9||             ; [DPU_3_PIPE] |95|  ; [ORIG 16-BIT INS]
     255                            ; BRANCHCC OCCURS {||$C$L9||}    ; [] |95| 
     256                    ;* --------------------------------------------------------------------------*
     257                            .dwpsn  file "D:/CE2007/inc/Clock.c",line 96,column 7,is_stmt,isa 1
     258                    ;* --------------------------------------------------------------------------*
     259                    ;*   BEGIN LOOP ||$C$L6||
     260                    ;* --------------------------------------------------------------------------*
     261 00000080           ||$C$L6||:    
     262                            .dwpsn  file "D:/CE2007/inc/Clock.c",line 93,column 3,is_stmt,isa 1
     263 00000080 4840              LDR       A1, $C$CON3           ; [DPU_3_PIPE] |93|  ; [ORIG 16-BIT INS]
     264 00000082 6800              LDR       A1, [A1, #0]          ; [DPU_3_PIPE] |93|  ; [ORIG 16-BIT INS]
     265 00000084 0A40              LSRS      A1, A1, #9            ; [DPU_3_PIPE] |93|  ; [ORIG 16-BIT INS]
     266 00000086 D2F1              BCS       ||$C$L5||             ; [DPU_3_PIPE] |93|  ; [ORIG 16-BIT INS]
     267                            ; BRANCHCC OCCURS {||$C$L5||}    ; [] |93| 
     268                    ;* --------------------------------------------------------------------------*
     269                            .dwpsn  file "D:/CE2007/inc/Clock.c",line 100,column 3,is_stmt,isa 1
     270 00000088 4947              LDR       A2, $C$CON12          ; [DPU_3_PIPE] |100|  ; [ORIG 16-BIT INS]
     271 0000008a 8808              LDRH      A1, [A2, #0]          ; [DPU_3_PIPE] |100|  ; [ORIG 16-BIT INS]
     272 0000008c 000CF040          ORR       A1, A1, #12           ; [DPU_3_PIPE] |100|  ; [KEEP 32-BIT INS]
     273 00000090 8008              STRH      A1, [A2, #0]          ; [DPU_3_PIPE] |100|  ; [ORIG 16-BIT INS]
     274                            .dwpsn  file "D:/CE2007/inc/Clock.c",line 101,column 3,is_stmt,isa 1
     275 00000092 4946              LDR       A2, $C$CON13          ; [DPU_3_PIPE] |101|  ; [ORIG 16-BIT INS]
TI ARM Assembler PC v16.9.6 Fri Mar 20 15:43:33 2026

Tools Copyright (c) 1996-2017 Texas Instruments Incorporated
Clock.asm                                                            PAGE    6

     276 00000094 8808              LDRH      A1, [A2, #0]          ; [DPU_3_PIPE] |101|  ; [ORIG 16-BIT INS]
     277 00000096 000CF020          BIC       A1, A1, #12           ; [DPU_3_PIPE] |101|  ; [KEEP 32-BIT INS]
     278 0000009a 8008              STRH      A1, [A2, #0]          ; [DPU_3_PIPE] |101|  ; [ORIG 16-BIT INS]
     279                            .dwpsn  file "D:/CE2007/inc/Clock.c",line 104,column 3,is_stmt,isa 1
     280 0000009c 4944              LDR       A2, $C$CON14          ; [DPU_3_PIPE] |104|  ; [ORIG 16-BIT INS]
     281 0000009e 105AF646          MOV       A1, #26970            ; [DPU_3_PIPE] |104|  ; [KEEP 32-BIT INS]
     282 000000a2 6008              STR       A1, [A2, #0]          ; [DPU_3_PIPE] |104|  ; [ORIG 16-BIT INS]
     283                            .dwpsn  file "D:/CE2007/inc/Clock.c",line 105,column 3,is_stmt,isa 1
     284 000000a4 4843              LDR       A1, $C$CON15          ; [DPU_3_PIPE] |105|  ; [ORIG 16-BIT INS]
     285 000000a6 4A43              LDR       A3, $C$CON15          ; [DPU_3_PIPE] |105|  ; [ORIG 16-BIT INS]
     286 000000a8 4943              LDR       A2, $C$CON16          ; [DPU_3_PIPE] |105|  ; [ORIG 16-BIT INS]
     287 000000aa 6800              LDR       A1, [A1, #0]          ; [DPU_3_PIPE] |105|  ; [ORIG 16-BIT INS]
     288 000000ac 00E0F420          BIC       A1, A1, #7340032      ; [DPU_3_PIPE] |105|  ; [KEEP 32-BIT INS]
     289 000000b0 4301              ORRS      A2, A2, A1            ; [DPU_3_PIPE] |105|  ; [ORIG 16-BIT INS]
     290 000000b2 6011              STR       A2, [A3, #0]          ; [DPU_3_PIPE] |105|  ; [ORIG 16-BIT INS]
     291                            .dwpsn  file "D:/CE2007/inc/Clock.c",line 109,column 3,is_stmt,isa 1
     292 000000b4 493F              LDR       A2, $C$CON15          ; [DPU_3_PIPE] |109|  ; [ORIG 16-BIT INS]
     293 000000b6 6808              LDR       A1, [A2, #0]          ; [DPU_3_PIPE] |109|  ; [ORIG 16-BIT INS]
     294 000000b8 7000F020          BIC       A1, A1, #33554432     ; [DPU_3_PIPE] |109|  ; [KEEP 32-BIT INS]
     295 000000bc 6008              STR       A1, [A2, #0]          ; [DPU_3_PIPE] |109|  ; [ORIG 16-BIT INS]
     296                            .dwpsn  file "D:/CE2007/inc/Clock.c",line 111,column 3,is_stmt,isa 1
     297 000000be E00C              B         ||$C$L8||             ; [DPU_3_PIPE] |111|  ; [ORIG 16-BIT INS]
     298                            ; BRANCH OCCURS {||$C$L8||}      ; [] |111| 
     299                    ;* --------------------------------------------------------------------------*
     300 000000c0           ||$C$L7||:    
     301                            .dwpsn  file "D:/CE2007/inc/Clock.c",line 112,column 5,is_stmt,isa 1
     302 000000c0 493E              LDR       A2, $C$CON17          ; [DPU_3_PIPE] |112|  ; [ORIG 16-BIT INS]
     303 000000c2 2002              MOVS      A1, #2                ; [DPU_3_PIPE] |112|  ; [ORIG 16-BIT INS]
     304 000000c4 6008              STR       A1, [A2, #0]          ; [DPU_3_PIPE] |112|  ; [ORIG 16-BIT INS]
     305                            .dwpsn  file "D:/CE2007/inc/Clock.c",line 113,column 5,is_stmt,isa 1
     306 000000c6 483E              LDR       A1, $C$CON18          ; [DPU_3_PIPE] |113|  ; [ORIG 16-BIT INS]
     307 000000c8 493D              LDR       A2, $C$CON18          ; [DPU_3_PIPE] |113|  ; [ORIG 16-BIT INS]
     308 000000ca 6800              LDR       A1, [A1, #0]          ; [DPU_3_PIPE] |113|  ; [ORIG 16-BIT INS]
     309 000000cc 1C40              ADDS      A1, A1, #1            ; [DPU_3_PIPE] |113|  ; [ORIG 16-BIT INS]
     310 000000ce 6008              STR       A1, [A2, #0]          ; [DPU_3_PIPE] |113|  ; [ORIG 16-BIT INS]
     311                            .dwpsn  file "D:/CE2007/inc/Clock.c",line 114,column 5,is_stmt,isa 1
     312 000000d0 483B              LDR       A1, $C$CON18          ; [DPU_3_PIPE] |114|  ; [ORIG 16-BIT INS]
     313 000000d2 492B              LDR       A2, $C$CON2           ; [DPU_3_PIPE] |114|  ; [ORIG 16-BIT INS]
     314 000000d4 6800              LDR       A1, [A1, #0]          ; [DPU_3_PIPE] |114|  ; [ORIG 16-BIT INS]
     315 000000d6 4281              CMP       A2, A1                ; [DPU_3_PIPE] |114|  ; [ORIG 16-BIT INS]
     316 000000d8 D31C              BCC       ||$C$L9||             ; [DPU_3_PIPE] |114|  ; [ORIG 16-BIT INS]
     317                            ; BRANCHCC OCCURS {||$C$L9||}    ; [] |114| 
     318                    ;* --------------------------------------------------------------------------*
     319                            .dwpsn  file "D:/CE2007/inc/Clock.c",line 115,column 7,is_stmt,isa 1
     320                    ;* --------------------------------------------------------------------------*
     321                    ;*   BEGIN LOOP ||$C$L8||
     322                    ;* --------------------------------------------------------------------------*
     323 000000da           ||$C$L8||:    
     324                            .dwpsn  file "D:/CE2007/inc/Clock.c",line 111,column 3,is_stmt,isa 1
     325 000000da 483A              LDR       A1, $C$CON19          ; [DPU_3_PIPE] |111|  ; [ORIG 16-BIT INS]
     326 000000dc 6800              LDR       A1, [A1, #0]          ; [DPU_3_PIPE] |111|  ; [ORIG 16-BIT INS]
     327 000000de 0880              LSRS      A1, A1, #2            ; [DPU_3_PIPE] |111|  ; [ORIG 16-BIT INS]
     328 000000e0 D2EE              BCS       ||$C$L7||             ; [DPU_3_PIPE] |111|  ; [ORIG 16-BIT INS]
     329                            ; BRANCHCC OCCURS {||$C$L7||}    ; [] |111| 
     330                    ;* --------------------------------------------------------------------------*
TI ARM Assembler PC v16.9.6 Fri Mar 20 15:43:33 2026

Tools Copyright (c) 1996-2017 Texas Instruments Incorporated
Clock.asm                                                            PAGE    7

     331                            .dwpsn  file "D:/CE2007/inc/Clock.c",line 119,column 3,is_stmt,isa 1
     332 000000e2 4839              LDR       A1, $C$CON20          ; [DPU_3_PIPE] |119|  ; [ORIG 16-BIT INS]
     333 000000e4 4938              LDR       A2, $C$CON20          ; [DPU_3_PIPE] |119|  ; [ORIG 16-BIT INS]
     334 000000e6 6800              LDR       A1, [A1, #0]          ; [DPU_3_PIPE] |119|  ; [ORIG 16-BIT INS]
     335 000000e8 4070F420          BIC       A1, A1, #61440        ; [DPU_3_PIPE] |119|  ; [KEEP 32-BIT INS]
     336 000000ec 5000F440          ORR       A1, A1, #8192         ; [DPU_3_PIPE] |119|  ; [KEEP 32-BIT INS]
     337 000000f0 6008              STR       A1, [A2, #0]          ; [DPU_3_PIPE] |119|  ; [ORIG 16-BIT INS]
     338                            .dwpsn  file "D:/CE2007/inc/Clock.c",line 121,column 3,is_stmt,isa 1
     339 000000f2 4836              LDR       A1, $C$CON21          ; [DPU_3_PIPE] |121|  ; [ORIG 16-BIT INS]
     340 000000f4 4935              LDR       A2, $C$CON21          ; [DPU_3_PIPE] |121|  ; [ORIG 16-BIT INS]
     341 000000f6 6800              LDR       A1, [A1, #0]          ; [DPU_3_PIPE] |121|  ; [ORIG 16-BIT INS]
     342 000000f8 4070F420          BIC       A1, A1, #61440        ; [DPU_3_PIPE] |121|  ; [KEEP 32-BIT INS]
     343 000000fc 5000F440          ORR       A1, A1, #8192         ; [DPU_3_PIPE] |121|  ; [KEEP 32-BIT INS]
     344 00000100 6008              STR       A1, [A2, #0]          ; [DPU_3_PIPE] |121|  ; [ORIG 16-BIT INS]
     345                            .dwpsn  file "D:/CE2007/inc/Clock.c",line 122,column 3,is_stmt,isa 1
     346 00000102 4834              LDR       A1, $C$CON23          ; [DPU_3_PIPE] |122|  ; [ORIG 16-BIT INS]
     347 00000104 4932              LDR       A2, $C$CON22          ; [DPU_3_PIPE] |122|  ; [ORIG 16-BIT INS]
     348 00000106 6008              STR       A1, [A2, #0]          ; [DPU_3_PIPE] |122|  ; [ORIG 16-BIT INS]
     349                            .dwpsn  file "D:/CE2007/inc/Clock.c",line 127,column 3,is_stmt,isa 1
     350 00000108 4929              LDR       A2, $C$CON14          ; [DPU_3_PIPE] |127|  ; [ORIG 16-BIT INS]
     351 0000010a 2000              MOVS      A1, #0                ; [DPU_3_PIPE] |127|  ; [ORIG 16-BIT INS]
     352 0000010c 6008              STR       A1, [A2, #0]          ; [DPU_3_PIPE] |127|  ; [ORIG 16-BIT INS]
     353                            .dwpsn  file "D:/CE2007/inc/Clock.c",line 128,column 3,is_stmt,isa 1
     354 0000010e 4833              LDR       A1, $C$CON25          ; [DPU_3_PIPE] |128|  ; [ORIG 16-BIT INS]
     355 00000110 4931              LDR       A2, $C$CON24          ; [DPU_3_PIPE] |128|  ; [ORIG 16-BIT INS]
     356 00000112 6008              STR       A1, [A2, #0]          ; [DPU_3_PIPE] |128|  ; [ORIG 16-BIT INS]
     357                            .dwpsn  file "D:/CE2007/inc/Clock.c",line 130,column 1,is_stmt,isa 1
     358                    ;* --------------------------------------------------------------------------*
     359                    ||$C$L9||:    
     360                    $C$DW$8 .dwtag  DW_TAG_TI_branch
     361                            .dwattr $C$DW$8, DW_AT_low_pc(0x00)
     362                            .dwattr $C$DW$8, DW_AT_TI_return
     363                    
     364 00000114 4770              BX        LR                    ; [DPU_3_PIPE]  ; [ORIG 16-BIT INS]
     365                            ; BRANCH OCCURS                  ; [] 
     366                            .dwattr $C$DW$7, DW_AT_TI_end_file("D:/CE2007/inc/Clock.c")
     367                            .dwattr $C$DW$7, DW_AT_TI_end_line(0x82)
     368                            .dwattr $C$DW$7, DW_AT_TI_end_column(0x01)
     369                            .dwendentry
     370                            .dwendtag $C$DW$7
     371                    
     372 00000116                   .sect   ".text"
     373                            .clink
     374                            .thumbfunc Clock_GetFreq
     375 00000116                   .thumb
     376                            .global Clock_GetFreq
     377                    
     378                    $C$DW$9 .dwtag  DW_TAG_subprogram
     379                            .dwattr $C$DW$9, DW_AT_name("Clock_GetFreq")
     380                            .dwattr $C$DW$9, DW_AT_low_pc(Clock_GetFreq)
     381                            .dwattr $C$DW$9, DW_AT_high_pc(0x00)
     382                            .dwattr $C$DW$9, DW_AT_TI_symbol_name("Clock_GetFreq")
     383                            .dwattr $C$DW$9, DW_AT_external
     384                            .dwattr $C$DW$9, DW_AT_type(*$C$DW$T$19)
     385                            .dwattr $C$DW$9, DW_AT_TI_begin_file("D:/CE2007/inc/Clock.c")
TI ARM Assembler PC v16.9.6 Fri Mar 20 15:43:33 2026

Tools Copyright (c) 1996-2017 Texas Instruments Incorporated
Clock.asm                                                            PAGE    8

     386                            .dwattr $C$DW$9, DW_AT_TI_begin_line(0x89)
     387                            .dwattr $C$DW$9, DW_AT_TI_begin_column(0x0a)
     388                            .dwattr $C$DW$9, DW_AT_decl_file("D:/CE2007/inc/Clock.c")
     389                            .dwattr $C$DW$9, DW_AT_decl_line(0x89)
     390                            .dwattr $C$DW$9, DW_AT_decl_column(0x0a)
     391                            .dwattr $C$DW$9, DW_AT_TI_max_frame_size(0x00)
     392                            .dwpsn  file "D:/CE2007/inc/Clock.c",line 137,column 29,is_stmt,address Clock_GetFreq,isa 1
     393                    
     394                            .dwfde $C$DW$CIE, Clock_GetFreq
     395                    
     396                    ;*****************************************************************************
     397                    ;* FUNCTION NAME: Clock_GetFreq                                              *
     398                    ;*                                                                           *
     399                    ;*   Regs Modified     : A1                                                  *
     400                    ;*   Regs Used         : A1,LR                                               *
     401                    ;*   Local Frame Size  : 0 Args + 0 Auto + 0 Save = 0 byte                   *
     402                    ;*****************************************************************************
     403 00000116           Clock_GetFreq:
     404                    ;* --------------------------------------------------------------------------*
     405                            .dwcfi  cfa_offset, 0
     406                            .dwpsn  file "D:/CE2007/inc/Clock.c",line 138,column 3,is_stmt,isa 1
     407 00000116 4830              LDR       A1, $C$CON24          ; [DPU_3_PIPE] |138|  ; [ORIG 16-BIT INS]
     408 00000118 6800              LDR       A1, [A1, #0]          ; [DPU_3_PIPE] |138|  ; [ORIG 16-BIT INS]
     409                            .dwpsn  file "D:/CE2007/inc/Clock.c",line 139,column 1,is_stmt,isa 1
     410                    $C$DW$10        .dwtag  DW_TAG_TI_branch
     411                            .dwattr $C$DW$10, DW_AT_low_pc(0x00)
     412                            .dwattr $C$DW$10, DW_AT_TI_return
     413                    
     414 0000011a 4770              BX        LR                    ; [DPU_3_PIPE]  ; [ORIG 16-BIT INS]
     415                            ; BRANCH OCCURS                  ; [] 
     416                            .dwattr $C$DW$9, DW_AT_TI_end_file("D:/CE2007/inc/Clock.c")
     417                            .dwattr $C$DW$9, DW_AT_TI_end_line(0x8b)
     418                            .dwattr $C$DW$9, DW_AT_TI_end_column(0x01)
     419                            .dwendentry
     420                            .dwendtag $C$DW$9
     421                    
     422 0000011c                   .sect   ".text"
     423                            .clink
     424                            .thumbfunc delay
     425 0000011c                   .thumb
     426                            .global delay
     427                    
     428                    $C$DW$11        .dwtag  DW_TAG_subprogram
     429                            .dwattr $C$DW$11, DW_AT_name("delay")
     430                            .dwattr $C$DW$11, DW_AT_low_pc(delay)
     431                            .dwattr $C$DW$11, DW_AT_high_pc(0x00)
     432                            .dwattr $C$DW$11, DW_AT_TI_symbol_name("delay")
     433                            .dwattr $C$DW$11, DW_AT_external
     434                            .dwattr $C$DW$11, DW_AT_TI_begin_file("D:/CE2007/inc/Clock.c")
     435                            .dwattr $C$DW$11, DW_AT_TI_begin_line(0x92)
     436                            .dwattr $C$DW$11, DW_AT_TI_begin_column(0x06)
     437                            .dwattr $C$DW$11, DW_AT_decl_file("D:/CE2007/inc/Clock.c")
     438                            .dwattr $C$DW$11, DW_AT_decl_line(0x92)
     439                            .dwattr $C$DW$11, DW_AT_decl_column(0x06)
     440                            .dwattr $C$DW$11, DW_AT_TI_max_frame_size(0x08)
TI ARM Assembler PC v16.9.6 Fri Mar 20 15:43:33 2026

Tools Copyright (c) 1996-2017 Texas Instruments Incorporated
Clock.asm                                                            PAGE    9

     441                            .dwpsn  file "D:/CE2007/inc/Clock.c",line 146,column 34,is_stmt,address delay,isa 1
     442                    
     443                            .dwfde $C$DW$CIE, delay
     444                    $C$DW$12        .dwtag  DW_TAG_formal_parameter
     445                            .dwattr $C$DW$12, DW_AT_name("ulCount")
     446                            .dwattr $C$DW$12, DW_AT_TI_symbol_name("ulCount")
     447                            .dwattr $C$DW$12, DW_AT_type(*$C$DW$T$13)
     448                            .dwattr $C$DW$12, DW_AT_location[DW_OP_reg0]
     449                    
     450                    
     451                    ;*****************************************************************************
     452                    ;* FUNCTION NAME: delay                                                      *
     453                    ;*                                                                           *
     454                    ;*   Regs Modified     : SP                                                  *
     455                    ;*   Regs Used         : A1,SP,LR                                            *
     456                    ;*   Local Frame Size  : 0 Args + 4 Auto + 0 Save = 4 byte                   *
     457                    ;*****************************************************************************
     458 0000011c           delay:
     459                    ;* --------------------------------------------------------------------------*
     460                            .dwcfi  cfa_offset, 0
     461 0000011c 0D08F1AD          SUB       SP, SP, #8            ; [DPU_3_PIPE]  ; [KEEP 32-BIT INS]
     462                            .dwcfi  cfa_offset, 8
     463                    $C$DW$13        .dwtag  DW_TAG_variable
     464                            .dwattr $C$DW$13, DW_AT_name("ulCount")
     465                            .dwattr $C$DW$13, DW_AT_TI_symbol_name("ulCount")
     466                            .dwattr $C$DW$13, DW_AT_type(*$C$DW$T$13)
     467                            .dwattr $C$DW$13, DW_AT_location[DW_OP_breg13 0]
     468                    
     469 00000120 9000              STR       A1, [SP, #0]          ; [DPU_3_PIPE] |146|  ; [ORIG 16-BIT INS]
     470                            .dwpsn  file "D:/CE2007/inc/Clock.c",line 147,column 3,is_stmt,isa 1
     471 00000122 1E40      pdloop:  subs    r0, #1 ; [ORIG 16-BIT INS]
     472 00000124 D1FD          bne    pdloop ; [ORIG 16-BIT INS]
     473                            .dwpsn  file "D:/CE2007/inc/Clock.c",line 149,column 1,is_stmt,isa 1
     474 00000126 B002              ADD       SP, SP, #8            ; [DPU_3_PIPE]  ; [ORIG 16-BIT INS]
     475                            .dwcfi  cfa_offset, 0
     476                    $C$DW$14        .dwtag  DW_TAG_TI_branch
     477                            .dwattr $C$DW$14, DW_AT_low_pc(0x00)
     478                            .dwattr $C$DW$14, DW_AT_TI_return
     479                    
     480 00000128 4770              BX        LR                    ; [DPU_3_PIPE]  ; [ORIG 16-BIT INS]
     481                            ; BRANCH OCCURS                  ; [] 
     482                            .dwattr $C$DW$11, DW_AT_TI_end_file("D:/CE2007/inc/Clock.c")
     483                            .dwattr $C$DW$11, DW_AT_TI_end_line(0x95)
     484                            .dwattr $C$DW$11, DW_AT_TI_end_column(0x01)
     485                            .dwendentry
     486                            .dwendtag $C$DW$11
     487                    
     488 0000012a                   .sect   ".text"
     489                            .clink
     490                            .thumbfunc Clock_Delay1us
     491 0000012a                   .thumb
     492                            .global Clock_Delay1us
     493                    
     494                    $C$DW$15        .dwtag  DW_TAG_subprogram
     495                            .dwattr $C$DW$15, DW_AT_name("Clock_Delay1us")
TI ARM Assembler PC v16.9.6 Fri Mar 20 15:43:33 2026

Tools Copyright (c) 1996-2017 Texas Instruments Incorporated
Clock.asm                                                            PAGE   10

     496                            .dwattr $C$DW$15, DW_AT_low_pc(Clock_Delay1us)
     497                            .dwattr $C$DW$15, DW_AT_high_pc(0x00)
     498                            .dwattr $C$DW$15, DW_AT_TI_symbol_name("Clock_Delay1us")
     499                            .dwattr $C$DW$15, DW_AT_external
     500                            .dwattr $C$DW$15, DW_AT_TI_begin_file("D:/CE2007/inc/Clock.c")
     501                            .dwattr $C$DW$15, DW_AT_TI_begin_line(0x9b)
     502                            .dwattr $C$DW$15, DW_AT_TI_begin_column(0x06)
     503                            .dwattr $C$DW$15, DW_AT_decl_file("D:/CE2007/inc/Clock.c")
     504                            .dwattr $C$DW$15, DW_AT_decl_line(0x9b)
     505                            .dwattr $C$DW$15, DW_AT_decl_column(0x06)
     506                            .dwattr $C$DW$15, DW_AT_TI_max_frame_size(0x08)
     507                            .dwpsn  file "D:/CE2007/inc/Clock.c",line 155,column 32,is_stmt,address Clock_Delay1us,isa 1
     508                    
     509                            .dwfde $C$DW$CIE, Clock_Delay1us
     510                    $C$DW$16        .dwtag  DW_TAG_formal_parameter
     511                            .dwattr $C$DW$16, DW_AT_name("n")
     512                            .dwattr $C$DW$16, DW_AT_TI_symbol_name("n")
     513                            .dwattr $C$DW$16, DW_AT_type(*$C$DW$T$19)
     514                            .dwattr $C$DW$16, DW_AT_location[DW_OP_reg0]
     515                    
     516                    
     517                    ;*****************************************************************************
     518                    ;* FUNCTION NAME: Clock_Delay1us                                             *
     519                    ;*                                                                           *
     520                    ;*   Regs Modified     : A1,A2,A3,SP,SR                                      *
     521                    ;*   Regs Used         : A1,A2,A3,SP,LR,SR                                   *
     522                    ;*   Local Frame Size  : 0 Args + 4 Auto + 0 Save = 4 byte                   *
     523                    ;*****************************************************************************
     524 0000012a           Clock_Delay1us:
     525                    ;* --------------------------------------------------------------------------*
     526                            .dwcfi  cfa_offset, 0
     527 0000012a 0D08F1AD          SUB       SP, SP, #8            ; [DPU_3_PIPE]  ; [KEEP 32-BIT INS]
     528                            .dwcfi  cfa_offset, 8
     529                    $C$DW$17        .dwtag  DW_TAG_variable
     530                            .dwattr $C$DW$17, DW_AT_name("n")
     531                            .dwattr $C$DW$17, DW_AT_TI_symbol_name("n")
     532                            .dwattr $C$DW$17, DW_AT_type(*$C$DW$T$19)
     533                            .dwattr $C$DW$17, DW_AT_location[DW_OP_breg13 0]
     534                    
     535 0000012e 9000              STR       A1, [SP, #0]          ; [DPU_3_PIPE] |155|  ; [ORIG 16-BIT INS]
     536                            .dwpsn  file "D:/CE2007/inc/Clock.c",line 156,column 3,is_stmt,isa 1
     537 00000130 9A00              LDR       A3, [SP, #0]          ; [DPU_3_PIPE] |156|  ; [ORIG 16-BIT INS]
     538 00000132 70BFF44F          MOV       A1, #382              ; [DPU_3_PIPE] |156|  ; [KEEP 32-BIT INS]
     539 00000136 2164              MOVS      A2, #100              ; [DPU_3_PIPE] |156|  ; [ORIG 16-BIT INS]
     540 00000138 4350              MULS      A1, A1, A3            ; [DPU_3_PIPE] |156|  ; [ORIG 16-BIT INS]
     541 0000013a F0F1FBB0          UDIV      A1, A1, A2            ; [DPU_3_PIPE] |156|  ; [KEEP 32-BIT INS]
     542 0000013e 9000              STR       A1, [SP, #0]          ; [DPU_3_PIPE] |156|  ; [ORIG 16-BIT INS]
     543                            .dwpsn  file "D:/CE2007/inc/Clock.c",line 157,column 3,is_stmt,isa 1
     544 00000140 9800              LDR       A1, [SP, #0]          ; [DPU_3_PIPE] |157|  ; [ORIG 16-BIT INS]
     545 00000142 B128              CBZ       A1, ||$C$L11||        ; []  ; [ORIG 16-BIT INS]
     546                            ; BRANCHCC OCCURS {||$C$L11||}   ; [] |157| 
     547                    ;* --------------------------------------------------------------------------*
     548                    ;*   BEGIN LOOP ||$C$L10||
     549                    ;*
     550                    ;*   Loop source line                : 157
TI ARM Assembler PC v16.9.6 Fri Mar 20 15:43:33 2026

Tools Copyright (c) 1996-2017 Texas Instruments Incorporated
Clock.asm                                                            PAGE   11

     551                    ;*   Loop closing brace source line  : 159
     552                    ;*   Known Minimum Trip Count        : 1
     553                    ;*   Known Maximum Trip Count        : 4294967295
     554                    ;*   Known Max Trip Count Factor     : 1
     555                    ;* --------------------------------------------------------------------------*
     556 00000144           ||$C$L10||:    
     557                            .dwpsn  file "D:/CE2007/inc/Clock.c",line 158,column 5,is_stmt,isa 1
     558 00000144 9800              LDR       A1, [SP, #0]          ; [DPU_3_PIPE] |158|  ; [ORIG 16-BIT INS]
     559 00000146 1E40              SUBS      A1, A1, #1            ; [DPU_3_PIPE] |158|  ; [ORIG 16-BIT INS]
     560 00000148 9000              STR       A1, [SP, #0]          ; [DPU_3_PIPE] |158|  ; [ORIG 16-BIT INS]
     561                            .dwpsn  file "D:/CE2007/inc/Clock.c",line 157,column 3,is_stmt,isa 1
     562 0000014a 9800              LDR       A1, [SP, #0]          ; [DPU_3_PIPE] |157|  ; [ORIG 16-BIT INS]
     563 0000014c 2800              CMP       A1, #0                ; [DPU_3_PIPE] |157|  ; [ORIG 16-BIT INS]
     564 0000014e D1F9              BNE       ||$C$L10||            ; [DPU_3_PIPE] |157|  ; [ORIG 16-BIT INS]
     565                            ; BRANCHCC OCCURS {||$C$L10||}   ; [] |157| 
     566                    ;* --------------------------------------------------------------------------*
     567                            .dwpsn  file "D:/CE2007/inc/Clock.c",line 160,column 1,is_stmt,isa 1
     568                    ;* --------------------------------------------------------------------------*
     569 00000150           ||$C$L11||:    
     570 00000150 B002              ADD       SP, SP, #8            ; [DPU_3_PIPE]  ; [ORIG 16-BIT INS]
     571                            .dwcfi  cfa_offset, 0
     572                    $C$DW$18        .dwtag  DW_TAG_TI_branch
     573                            .dwattr $C$DW$18, DW_AT_low_pc(0x00)
     574                            .dwattr $C$DW$18, DW_AT_TI_return
     575                    
     576 00000152 4770              BX        LR                    ; [DPU_3_PIPE]  ; [ORIG 16-BIT INS]
     577                            ; BRANCH OCCURS                  ; [] 
     578                            .dwattr $C$DW$15, DW_AT_TI_end_file("D:/CE2007/inc/Clock.c")
     579                            .dwattr $C$DW$15, DW_AT_TI_end_line(0xa0)
     580                            .dwattr $C$DW$15, DW_AT_TI_end_column(0x01)
     581                            .dwendentry
     582                            .dwendtag $C$DW$15
     583                    
     584 00000154                   .sect   ".text"
     585                            .clink
     586                            .thumbfunc Clock_Delay1ms
     587 00000154                   .thumb
     588                            .global Clock_Delay1ms
     589                    
     590                    $C$DW$19        .dwtag  DW_TAG_subprogram
     591                            .dwattr $C$DW$19, DW_AT_name("Clock_Delay1ms")
     592                            .dwattr $C$DW$19, DW_AT_low_pc(Clock_Delay1ms)
     593                            .dwattr $C$DW$19, DW_AT_high_pc(0x00)
     594                            .dwattr $C$DW$19, DW_AT_TI_symbol_name("Clock_Delay1ms")
     595                            .dwattr $C$DW$19, DW_AT_external
     596                            .dwattr $C$DW$19, DW_AT_TI_begin_file("D:/CE2007/inc/Clock.c")
     597                            .dwattr $C$DW$19, DW_AT_TI_begin_line(0xa6)
     598                            .dwattr $C$DW$19, DW_AT_TI_begin_column(0x06)
     599                            .dwattr $C$DW$19, DW_AT_decl_file("D:/CE2007/inc/Clock.c")
     600                            .dwattr $C$DW$19, DW_AT_decl_line(0xa6)
     601                            .dwattr $C$DW$19, DW_AT_decl_column(0x06)
     602                            .dwattr $C$DW$19, DW_AT_TI_max_frame_size(0x08)
     603                            .dwpsn  file "D:/CE2007/inc/Clock.c",line 166,column 32,is_stmt,address Clock_Delay1ms,isa 1
     604                    
     605                            .dwfde $C$DW$CIE, Clock_Delay1ms
TI ARM Assembler PC v16.9.6 Fri Mar 20 15:43:33 2026

Tools Copyright (c) 1996-2017 Texas Instruments Incorporated
Clock.asm                                                            PAGE   12

     606                    $C$DW$20        .dwtag  DW_TAG_formal_parameter
     607                            .dwattr $C$DW$20, DW_AT_name("n")
     608                            .dwattr $C$DW$20, DW_AT_TI_symbol_name("n")
     609                            .dwattr $C$DW$20, DW_AT_type(*$C$DW$T$19)
     610                            .dwattr $C$DW$20, DW_AT_location[DW_OP_reg0]
     611                    
     612                    
     613                    ;*****************************************************************************
     614                    ;* FUNCTION NAME: Clock_Delay1ms                                             *
     615                    ;*                                                                           *
     616                    ;*   Regs Modified     : A1,A2,A4,SP,LR,SR,FPEXC,FPSCR                       *
     617                    ;*   Regs Used         : A1,A2,A4,SP,LR,SR,FPEXC,FPSCR                       *
     618                    ;*   Local Frame Size  : 0 Args + 4 Auto + 4 Save = 8 byte                   *
     619                    ;*****************************************************************************
     620 00000154           Clock_Delay1ms:
     621                    ;* --------------------------------------------------------------------------*
     622                            .dwcfi  cfa_offset, 0
     623 00000154 B508              PUSH      {A4, LR}              ; [DPU_3_PIPE]  ; [ORIG 16-BIT INS]
     624                            .dwcfi  cfa_offset, 8
     625                            .dwcfi  save_reg_to_mem, 14, -4
     626                            .dwcfi  save_reg_to_mem, 3, -8
     627                    $C$DW$21        .dwtag  DW_TAG_variable
     628                            .dwattr $C$DW$21, DW_AT_name("n")
     629                            .dwattr $C$DW$21, DW_AT_TI_symbol_name("n")
     630                            .dwattr $C$DW$21, DW_AT_type(*$C$DW$T$19)
     631                            .dwattr $C$DW$21, DW_AT_location[DW_OP_breg13 0]
     632                    
     633 00000156 9000              STR       A1, [SP, #0]          ; [DPU_3_PIPE] |166|  ; [ORIG 16-BIT INS]
     634                            .dwpsn  file "D:/CE2007/inc/Clock.c",line 167,column 3,is_stmt,isa 1
     635 00000158 9800              LDR       A1, [SP, #0]          ; [DPU_3_PIPE] |167|  ; [ORIG 16-BIT INS]
     636 0000015a B168              CBZ       A1, ||$C$L13||        ; []  ; [ORIG 16-BIT INS]
     637                            ; BRANCHCC OCCURS {||$C$L13||}   ; [] |167| 
     638                    ;* --------------------------------------------------------------------------*
     639                    ;*   BEGIN LOOP ||$C$L12||
     640                    ;*
     641                    ;*   Loop source line                : 167
     642                    ;*   Loop closing brace source line  : 170
     643                    ;*   Known Minimum Trip Count        : 1
     644                    ;*   Known Maximum Trip Count        : 4294967295
     645                    ;*   Known Max Trip Count Factor     : 1
     646                    ;* --------------------------------------------------------------------------*
     647 0000015c           ||$C$L12||:    
     648                            .dwpsn  file "D:/CE2007/inc/Clock.c",line 168,column 5,is_stmt,isa 1
     649 0000015c 481E              LDR       A1, $C$CON24          ; [DPU_3_PIPE] |168|  ; [ORIG 16-BIT INS]
     650 0000015e 6800              LDR       A1, [A1, #0]          ; [DPU_3_PIPE] |168|  ; [ORIG 16-BIT INS]
     651 00000160 31CAF242          MOV       A2, #9162             ; [DPU_3_PIPE] |168|  ; [KEEP 32-BIT INS]
     652 00000164 F0F1FBB0          UDIV      A1, A1, A2            ; [DPU_3_PIPE] |168|  ; [KEEP 32-BIT INS]
     653                    $C$DW$22        .dwtag  DW_TAG_TI_branch
     654                            .dwattr $C$DW$22, DW_AT_low_pc(0x00)
     655                            .dwattr $C$DW$22, DW_AT_name("delay")
     656                            .dwattr $C$DW$22, DW_AT_TI_call
     657                    
     658 00000168 FFFEF7FF!         BL        delay                 ; [DPU_3_PIPE] |168|  ; [KEEP 32-BIT INS]
     659                            ; CALL OCCURS {delay }           ; [] |168| 
     660                            .dwpsn  file "D:/CE2007/inc/Clock.c",line 169,column 5,is_stmt,isa 1
TI ARM Assembler PC v16.9.6 Fri Mar 20 15:43:33 2026

Tools Copyright (c) 1996-2017 Texas Instruments Incorporated
Clock.asm                                                            PAGE   13

     661 0000016c 9800              LDR       A1, [SP, #0]          ; [DPU_3_PIPE] |169|  ; [ORIG 16-BIT INS]
     662 0000016e 1E40              SUBS      A1, A1, #1            ; [DPU_3_PIPE] |169|  ; [ORIG 16-BIT INS]
     663 00000170 9000              STR       A1, [SP, #0]          ; [DPU_3_PIPE] |169|  ; [ORIG 16-BIT INS]
     664                            .dwpsn  file "D:/CE2007/inc/Clock.c",line 167,column 3,is_stmt,isa 1
     665 00000172 9800              LDR       A1, [SP, #0]          ; [DPU_3_PIPE] |167|  ; [ORIG 16-BIT INS]
     666 00000174 2800              CMP       A1, #0                ; [DPU_3_PIPE] |167|  ; [ORIG 16-BIT INS]
     667 00000176 D1F1              BNE       ||$C$L12||            ; [DPU_3_PIPE] |167|  ; [ORIG 16-BIT INS]
     668                            ; BRANCHCC OCCURS {||$C$L12||}   ; [] |167| 
     669                    ;* --------------------------------------------------------------------------*
     670                            .dwpsn  file "D:/CE2007/inc/Clock.c",line 171,column 1,is_stmt,isa 1
     671                    ;* --------------------------------------------------------------------------*
     672                    ||$C$L13||:    
     673                    $C$DW$23        .dwtag  DW_TAG_TI_branch
     674                            .dwattr $C$DW$23, DW_AT_low_pc(0x00)
     675                            .dwattr $C$DW$23, DW_AT_TI_return
     676                    
     677 00000178 BD08              POP       {A4, PC}              ; [DPU_3_PIPE]  ; [ORIG 16-BIT INS]
     678                            .dwcfi  cfa_offset, 0
     679                            .dwcfi  restore_reg, 3
     680                            ; BRANCH OCCURS                  ; [] 
     681                            .dwattr $C$DW$19, DW_AT_TI_end_file("D:/CE2007/inc/Clock.c")
     682                            .dwattr $C$DW$19, DW_AT_TI_end_line(0xab)
     683                            .dwattr $C$DW$19, DW_AT_TI_end_column(0x01)
     684                            .dwendentry
     685                            .dwendtag $C$DW$19
     686                    
     687                    ;******************************************************************************
     688                    ;* CONSTANT TABLE                                                             *
     689                    ;******************************************************************************
     690 0000017a                   .sect   ".text"
     691                            .align  4
     692 0000017a 000046C0! ||$C$CON1||:    .bits   Prewait,32
         0000017e 00000000 
     693                            .align  4
     694 0000017e 86A00000  ||$C$CON2||:    .bits   100000,32
         00000182 00000001 
     695                            .align  4
     696 00000182 00040001  ||$C$CON3||:    .bits   1073807364,32
         00000186 00004001 
     697                            .align  4
     698 00000186 00004001  ||$C$CON4||:    .bits   1073807360,32
         0000018a 00004001 
     699                            .align  4
     700 0000018a 00014001  ||$C$CON5||:    .bits   1767505921,32
         0000018e 0000695A 
     701                            .align  4
     702 0000018e 000C695A  ||$C$CON6||:    .bits   1073807372,32
         00000192 00004001 
     703                            .align  4
     704 00000192 00004001! ||$C$CON7||:    .bits   IFlags,32
         00000196 00000000 
     705                            .align  4
     706 00000196 00100000  ||$C$CON8||:    .bits   1073807376,32
         0000019a 00004001 
     707                            .align  4
TI ARM Assembler PC v16.9.6 Fri Mar 20 15:43:33 2026

Tools Copyright (c) 1996-2017 Texas Instruments Incorporated
Clock.asm                                                            PAGE   14

     708 0000019a 00004001! ||$C$CON9||:    .bits   CPMwait,32
         0000019e 00000000 
     709                            .align  4
     710 0000019e A1200000  ||$C$CON10||:   .bits   500000,32
         000001a2 00000007 
     711                            .align  4
     712 000001a2 00000007! ||$C$CON11||:   .bits   Postwait,32
         000001a6 00000000 
     713                            .align  4
     714 000001a6 4D2A0000  ||$C$CON12||:   .bits   1073761578,32
         000001aa 00004000 
     715                            .align  4
     716 000001aa 4D2C4000  ||$C$CON13||:   .bits   1073761580,32
         000001ae 00004000 
     717                            .align  4
     718 000001ae 04004000  ||$C$CON14||:   .bits   1073808384,32
         000001b2 00004001 
     719                            .align  4
     720 000001b2 040C4001  ||$C$CON15||:   .bits   1073808396,32
         000001b6 00004001 
     721                            .align  4
     722 000001b6 00004001  ||$C$CON16||:   .bits   23134208,32
         000001ba 00000161 
     723                            .align  4
     724 000001ba 04500161  ||$C$CON17||:   .bits   1073808464,32
         000001be 00004001 
     725                            .align  4
     726 000001be 00004001! ||$C$CON18||:   .bits   Crystalstable,32
         000001c2 00000000 
     727                            .align  4
     728 000001c2 04480000  ||$C$CON19||:   .bits   1073808456,32
         000001c6 00004001 
     729                            .align  4
     730 000001c6 10104001  ||$C$CON20||:   .bits   1073811472,32
         000001ca 00004001 
     731                            .align  4
     732 000001ca 10144001  ||$C$CON21||:   .bits   1073811476,32
         000001ce 00004001 
     733                            .align  4
     734 000001ce 04084001  ||$C$CON22||:   .bits   1073808392,32
         000001d2 00004001 
     735                            .align  4
     736 000001d2 02554001  ||$C$CON23||:   .bits   537920085,32
         000001d6 00002010 
     737                            .align  4
     738 000001d6 00002010! ||$C$CON24||:   .bits   ClockFrequency,32
         000001da 00000000 
     739                            .align  4
     740 000001da 6C000000  ||$C$CON25||:   .bits   48000000,32
         000001de 000002DC 
     741                    
     742                    ;******************************************************************************
     743                    ;* BUILD ATTRIBUTES                                                           *
     744                    ;******************************************************************************
     745                            .battr "TI", Tag_File, 1, Tag_LPM_INFO(1)
TI ARM Assembler PC v16.9.6 Fri Mar 20 15:43:33 2026

Tools Copyright (c) 1996-2017 Texas Instruments Incorporated
Clock.asm                                                            PAGE   15

     746                            .battr "TI", Tag_File, 1, Tag_PORTS_INIT_INFO("012345678901ABCDEFGHIJ0111111111100000000000000
     747                            .battr "aeabi", Tag_File, 1, Tag_ABI_PCS_wchar_t(2)
     748                            .battr "aeabi", Tag_File, 1, Tag_ABI_FP_rounding(0)
     749                            .battr "aeabi", Tag_File, 1, Tag_ABI_FP_denormal(0)
     750                            .battr "aeabi", Tag_File, 1, Tag_ABI_FP_exceptions(0)
     751                            .battr "aeabi", Tag_File, 1, Tag_ABI_FP_number_model(1)
     752                            .battr "aeabi", Tag_File, 1, Tag_ABI_enum_size(1)
     753                            .battr "aeabi", Tag_File, 1, Tag_ABI_optimization_goals(5)
     754                            .battr "aeabi", Tag_File, 1, Tag_ABI_FP_optimization_goals(0)
     755                            .battr "TI", Tag_File, 1, Tag_Bitfield_layout(0)
     756                            .battr "aeabi", Tag_File, 1, Tag_ABI_VFP_args(3)
     757                            .battr "TI", Tag_File, 1, Tag_FP_interface(1)
     758                    
     759                    ;******************************************************************************
     760                    ;* TYPE INFORMATION                                                           *
     761                    ;******************************************************************************
     762                    
     763                    $C$DW$T$22      .dwtag  DW_TAG_structure_type
     764                            .dwattr $C$DW$T$22, DW_AT_byte_size(0x14)
     765                    $C$DW$24        .dwtag  DW_TAG_member
     766                            .dwattr $C$DW$24, DW_AT_type(*$C$DW$T$20)
     767                            .dwattr $C$DW$24, DW_AT_name("CTL0")
     768                            .dwattr $C$DW$24, DW_AT_TI_symbol_name("CTL0")
     769                            .dwattr $C$DW$24, DW_AT_data_member_location[DW_OP_plus_uconst 0x0]
     770                            .dwattr $C$DW$24, DW_AT_accessibility(DW_ACCESS_public)
     771                            .dwattr $C$DW$24, DW_AT_decl_file("C:\ti\ccsv7\ccs_base\arm\include\msp432p401r.h")
     772                            .dwattr $C$DW$24, DW_AT_decl_line(0x3e2)
     773                            .dwattr $C$DW$24, DW_AT_decl_column(0x11)
     774                    
     775                    $C$DW$25        .dwtag  DW_TAG_member
     776                            .dwattr $C$DW$25, DW_AT_type(*$C$DW$T$20)
     777                            .dwattr $C$DW$25, DW_AT_name("CTL1")
     778                            .dwattr $C$DW$25, DW_AT_TI_symbol_name("CTL1")
     779                            .dwattr $C$DW$25, DW_AT_data_member_location[DW_OP_plus_uconst 0x4]
     780                            .dwattr $C$DW$25, DW_AT_accessibility(DW_ACCESS_public)
     781                            .dwattr $C$DW$25, DW_AT_decl_file("C:\ti\ccsv7\ccs_base\arm\include\msp432p401r.h")
     782                            .dwattr $C$DW$25, DW_AT_decl_line(0x3e3)
     783                            .dwattr $C$DW$25, DW_AT_decl_column(0x11)
     784                    
     785                    $C$DW$26        .dwtag  DW_TAG_member
     786                            .dwattr $C$DW$26, DW_AT_type(*$C$DW$T$20)
     787                            .dwattr $C$DW$26, DW_AT_name("IE")
     788                            .dwattr $C$DW$26, DW_AT_TI_symbol_name("IE")
     789                            .dwattr $C$DW$26, DW_AT_data_member_location[DW_OP_plus_uconst 0x8]
     790                            .dwattr $C$DW$26, DW_AT_accessibility(DW_ACCESS_public)
     791                            .dwattr $C$DW$26, DW_AT_decl_file("C:\ti\ccsv7\ccs_base\arm\include\msp432p401r.h")
     792                            .dwattr $C$DW$26, DW_AT_decl_line(0x3e4)
     793                            .dwattr $C$DW$26, DW_AT_decl_column(0x11)
     794                    
     795                    $C$DW$27        .dwtag  DW_TAG_member
     796                            .dwattr $C$DW$27, DW_AT_type(*$C$DW$T$21)
     797                            .dwattr $C$DW$27, DW_AT_name("IFG")
     798                            .dwattr $C$DW$27, DW_AT_TI_symbol_name("IFG")
     799                            .dwattr $C$DW$27, DW_AT_data_member_location[DW_OP_plus_uconst 0xc]
     800                            .dwattr $C$DW$27, DW_AT_accessibility(DW_ACCESS_public)
TI ARM Assembler PC v16.9.6 Fri Mar 20 15:43:33 2026

Tools Copyright (c) 1996-2017 Texas Instruments Incorporated
Clock.asm                                                            PAGE   16

     801                            .dwattr $C$DW$27, DW_AT_decl_file("C:\ti\ccsv7\ccs_base\arm\include\msp432p401r.h")
     802                            .dwattr $C$DW$27, DW_AT_decl_line(0x3e5)
     803                            .dwattr $C$DW$27, DW_AT_decl_column(0x11)
     804                    
     805                    $C$DW$28        .dwtag  DW_TAG_member
     806                            .dwattr $C$DW$28, DW_AT_type(*$C$DW$T$20)
     807                            .dwattr $C$DW$28, DW_AT_name("CLRIFG")
     808                            .dwattr $C$DW$28, DW_AT_TI_symbol_name("CLRIFG")
     809                            .dwattr $C$DW$28, DW_AT_data_member_location[DW_OP_plus_uconst 0x10]
     810                            .dwattr $C$DW$28, DW_AT_accessibility(DW_ACCESS_public)
     811                            .dwattr $C$DW$28, DW_AT_decl_file("C:\ti\ccsv7\ccs_base\arm\include\msp432p401r.h")
     812                            .dwattr $C$DW$28, DW_AT_decl_line(0x3e6)
     813                            .dwattr $C$DW$28, DW_AT_decl_column(0x11)
     814                    
     815                            .dwattr $C$DW$T$22, DW_AT_decl_file("C:\ti\ccsv7\ccs_base\arm\include\msp432p401r.h")
     816                            .dwattr $C$DW$T$22, DW_AT_decl_line(0x3e1)
     817                            .dwattr $C$DW$T$22, DW_AT_decl_column(0x10)
     818                            .dwendtag $C$DW$T$22
     819                    
     820                    $C$DW$T$172     .dwtag  DW_TAG_typedef
     821                            .dwattr $C$DW$T$172, DW_AT_name("PCM_Type")
     822                            .dwattr $C$DW$T$172, DW_AT_type(*$C$DW$T$22)
     823                            .dwattr $C$DW$T$172, DW_AT_language(DW_LANG_C)
     824                            .dwattr $C$DW$T$172, DW_AT_decl_file("C:\ti\ccsv7\ccs_base\arm\include\msp432p401r.h")
     825                            .dwattr $C$DW$T$172, DW_AT_decl_line(0x3e7)
     826                            .dwattr $C$DW$T$172, DW_AT_decl_column(0x03)
     827                    
     828                    
     829                    $C$DW$T$25      .dwtag  DW_TAG_structure_type
     830                            .dwattr $C$DW$T$25, DW_AT_byte_size(0x02)
     831                    $C$DW$29        .dwtag  DW_TAG_member
     832                            .dwattr $C$DW$29, DW_AT_type(*$C$DW$T$24)
     833                            .dwattr $C$DW$29, DW_AT_name("SEL0_L")
     834                            .dwattr $C$DW$29, DW_AT_TI_symbol_name("SEL0_L")
     835                            .dwattr $C$DW$29, DW_AT_data_member_location[DW_OP_plus_uconst 0x0]
     836                            .dwattr $C$DW$29, DW_AT_accessibility(DW_ACCESS_public)
     837                            .dwattr $C$DW$29, DW_AT_decl_file("C:\ti\ccsv7\ccs_base\arm\include\msp432p401r.h")
     838                            .dwattr $C$DW$29, DW_AT_decl_line(0x271)
     839                            .dwattr $C$DW$29, DW_AT_decl_column(0x14)
     840                    
     841                    $C$DW$30        .dwtag  DW_TAG_member
     842                            .dwattr $C$DW$30, DW_AT_type(*$C$DW$T$24)
     843                            .dwattr $C$DW$30, DW_AT_name("SEL0_H")
     844                            .dwattr $C$DW$30, DW_AT_TI_symbol_name("SEL0_H")
     845                            .dwattr $C$DW$30, DW_AT_data_member_location[DW_OP_plus_uconst 0x1]
     846                            .dwattr $C$DW$30, DW_AT_accessibility(DW_ACCESS_public)
     847                            .dwattr $C$DW$30, DW_AT_decl_file("C:\ti\ccsv7\ccs_base\arm\include\msp432p401r.h")
     848                            .dwattr $C$DW$30, DW_AT_decl_line(0x272)
     849                            .dwattr $C$DW$30, DW_AT_decl_column(0x14)
     850                    
     851                            .dwattr $C$DW$T$25, DW_AT_decl_file("C:\ti\ccsv7\ccs_base\arm\include\msp432p401r.h")
     852                            .dwattr $C$DW$T$25, DW_AT_decl_line(0x270)
     853                            .dwattr $C$DW$T$25, DW_AT_decl_column(0x0c)
     854                            .dwendtag $C$DW$T$25
     855                    
TI ARM Assembler PC v16.9.6 Fri Mar 20 15:43:33 2026

Tools Copyright (c) 1996-2017 Texas Instruments Incorporated
Clock.asm                                                            PAGE   17

     856                    
     857                    $C$DW$T$27      .dwtag  DW_TAG_structure_type
     858                            .dwattr $C$DW$T$27, DW_AT_byte_size(0x02)
     859                    $C$DW$31        .dwtag  DW_TAG_member
     860                            .dwattr $C$DW$31, DW_AT_type(*$C$DW$T$26)
     861                            .dwattr $C$DW$31, DW_AT_name("IN_L")
     862                            .dwattr $C$DW$31, DW_AT_TI_symbol_name("IN_L")
     863                            .dwattr $C$DW$31, DW_AT_data_member_location[DW_OP_plus_uconst 0x0]
     864                            .dwattr $C$DW$31, DW_AT_accessibility(DW_ACCESS_public)
     865                            .dwattr $C$DW$31, DW_AT_decl_file("C:\ti\ccsv7\ccs_base\arm\include\msp432p401r.h")
     866                            .dwattr $C$DW$31, DW_AT_decl_line(0x24e)
     867                            .dwattr $C$DW$31, DW_AT_decl_column(0x13)
     868                    
     869                    $C$DW$32        .dwtag  DW_TAG_member
     870                            .dwattr $C$DW$32, DW_AT_type(*$C$DW$T$26)
     871                            .dwattr $C$DW$32, DW_AT_name("IN_H")
     872                            .dwattr $C$DW$32, DW_AT_TI_symbol_name("IN_H")
     873                            .dwattr $C$DW$32, DW_AT_data_member_location[DW_OP_plus_uconst 0x1]
     874                            .dwattr $C$DW$32, DW_AT_accessibility(DW_ACCESS_public)
     875                            .dwattr $C$DW$32, DW_AT_decl_file("C:\ti\ccsv7\ccs_base\arm\include\msp432p401r.h")
     876                            .dwattr $C$DW$32, DW_AT_decl_line(0x24f)
     877                            .dwattr $C$DW$32, DW_AT_decl_column(0x13)
     878                    
     879                            .dwattr $C$DW$T$27, DW_AT_decl_file("C:\ti\ccsv7\ccs_base\arm\include\msp432p401r.h")
     880                            .dwattr $C$DW$T$27, DW_AT_decl_line(0x24d)
     881                            .dwattr $C$DW$T$27, DW_AT_decl_column(0x0c)
     882                            .dwendtag $C$DW$T$27
     883                    
     884                    
     885                    $C$DW$T$28      .dwtag  DW_TAG_structure_type
     886                            .dwattr $C$DW$T$28, DW_AT_byte_size(0x02)
     887                    $C$DW$33        .dwtag  DW_TAG_member
     888                            .dwattr $C$DW$33, DW_AT_type(*$C$DW$T$24)
     889                            .dwattr $C$DW$33, DW_AT_name("OUT_L")
     890                            .dwattr $C$DW$33, DW_AT_TI_symbol_name("OUT_L")
     891                            .dwattr $C$DW$33, DW_AT_data_member_location[DW_OP_plus_uconst 0x0]
     892                            .dwattr $C$DW$33, DW_AT_accessibility(DW_ACCESS_public)
     893                            .dwattr $C$DW$33, DW_AT_decl_file("C:\ti\ccsv7\ccs_base\arm\include\msp432p401r.h")
     894                            .dwattr $C$DW$33, DW_AT_decl_line(0x255)
     895                            .dwattr $C$DW$33, DW_AT_decl_column(0x14)
     896                    
     897                    $C$DW$34        .dwtag  DW_TAG_member
     898                            .dwattr $C$DW$34, DW_AT_type(*$C$DW$T$24)
     899                            .dwattr $C$DW$34, DW_AT_name("OUT_H")
     900                            .dwattr $C$DW$34, DW_AT_TI_symbol_name("OUT_H")
     901                            .dwattr $C$DW$34, DW_AT_data_member_location[DW_OP_plus_uconst 0x1]
     902                            .dwattr $C$DW$34, DW_AT_accessibility(DW_ACCESS_public)
     903                            .dwattr $C$DW$34, DW_AT_decl_file("C:\ti\ccsv7\ccs_base\arm\include\msp432p401r.h")
     904                            .dwattr $C$DW$34, DW_AT_decl_line(0x256)
     905                            .dwattr $C$DW$34, DW_AT_decl_column(0x14)
     906                    
     907                            .dwattr $C$DW$T$28, DW_AT_decl_file("C:\ti\ccsv7\ccs_base\arm\include\msp432p401r.h")
     908                            .dwattr $C$DW$T$28, DW_AT_decl_line(0x254)
     909                            .dwattr $C$DW$T$28, DW_AT_decl_column(0x0c)
     910                            .dwendtag $C$DW$T$28
TI ARM Assembler PC v16.9.6 Fri Mar 20 15:43:33 2026

Tools Copyright (c) 1996-2017 Texas Instruments Incorporated
Clock.asm                                                            PAGE   18

     911                    
     912                    
     913                    $C$DW$T$29      .dwtag  DW_TAG_structure_type
     914                            .dwattr $C$DW$T$29, DW_AT_byte_size(0x02)
     915                    $C$DW$35        .dwtag  DW_TAG_member
     916                            .dwattr $C$DW$35, DW_AT_type(*$C$DW$T$24)
     917                            .dwattr $C$DW$35, DW_AT_name("DIR_L")
     918                            .dwattr $C$DW$35, DW_AT_TI_symbol_name("DIR_L")
     919                            .dwattr $C$DW$35, DW_AT_data_member_location[DW_OP_plus_uconst 0x0]
     920                            .dwattr $C$DW$35, DW_AT_accessibility(DW_ACCESS_public)
     921                            .dwattr $C$DW$35, DW_AT_decl_file("C:\ti\ccsv7\ccs_base\arm\include\msp432p401r.h")
     922                            .dwattr $C$DW$35, DW_AT_decl_line(0x25c)
     923                            .dwattr $C$DW$35, DW_AT_decl_column(0x14)
     924                    
     925                    $C$DW$36        .dwtag  DW_TAG_member
     926                            .dwattr $C$DW$36, DW_AT_type(*$C$DW$T$24)
     927                            .dwattr $C$DW$36, DW_AT_name("DIR_H")
     928                            .dwattr $C$DW$36, DW_AT_TI_symbol_name("DIR_H")
     929                            .dwattr $C$DW$36, DW_AT_data_member_location[DW_OP_plus_uconst 0x1]
     930                            .dwattr $C$DW$36, DW_AT_accessibility(DW_ACCESS_public)
     931                            .dwattr $C$DW$36, DW_AT_decl_file("C:\ti\ccsv7\ccs_base\arm\include\msp432p401r.h")
     932                            .dwattr $C$DW$36, DW_AT_decl_line(0x25d)
     933                            .dwattr $C$DW$36, DW_AT_decl_column(0x14)
     934                    
     935                            .dwattr $C$DW$T$29, DW_AT_decl_file("C:\ti\ccsv7\ccs_base\arm\include\msp432p401r.h")
     936                            .dwattr $C$DW$T$29, DW_AT_decl_line(0x25b)
     937                            .dwattr $C$DW$T$29, DW_AT_decl_column(0x0c)
     938                            .dwendtag $C$DW$T$29
     939                    
     940                    
     941                    $C$DW$T$30      .dwtag  DW_TAG_structure_type
     942                            .dwattr $C$DW$T$30, DW_AT_byte_size(0x02)
     943                    $C$DW$37        .dwtag  DW_TAG_member
     944                            .dwattr $C$DW$37, DW_AT_type(*$C$DW$T$24)
     945                            .dwattr $C$DW$37, DW_AT_name("REN_L")
     946                            .dwattr $C$DW$37, DW_AT_TI_symbol_name("REN_L")
     947                            .dwattr $C$DW$37, DW_AT_data_member_location[DW_OP_plus_uconst 0x0]
     948                            .dwattr $C$DW$37, DW_AT_accessibility(DW_ACCESS_public)
     949                            .dwattr $C$DW$37, DW_AT_decl_file("C:\ti\ccsv7\ccs_base\arm\include\msp432p401r.h")
     950                            .dwattr $C$DW$37, DW_AT_decl_line(0x263)
     951                            .dwattr $C$DW$37, DW_AT_decl_column(0x14)
     952                    
     953                    $C$DW$38        .dwtag  DW_TAG_member
     954                            .dwattr $C$DW$38, DW_AT_type(*$C$DW$T$24)
     955                            .dwattr $C$DW$38, DW_AT_name("REN_H")
     956                            .dwattr $C$DW$38, DW_AT_TI_symbol_name("REN_H")
     957                            .dwattr $C$DW$38, DW_AT_data_member_location[DW_OP_plus_uconst 0x1]
     958                            .dwattr $C$DW$38, DW_AT_accessibility(DW_ACCESS_public)
     959                            .dwattr $C$DW$38, DW_AT_decl_file("C:\ti\ccsv7\ccs_base\arm\include\msp432p401r.h")
     960                            .dwattr $C$DW$38, DW_AT_decl_line(0x264)
     961                            .dwattr $C$DW$38, DW_AT_decl_column(0x14)
     962                    
     963                            .dwattr $C$DW$T$30, DW_AT_decl_file("C:\ti\ccsv7\ccs_base\arm\include\msp432p401r.h")
     964                            .dwattr $C$DW$T$30, DW_AT_decl_line(0x262)
     965                            .dwattr $C$DW$T$30, DW_AT_decl_column(0x0c)
TI ARM Assembler PC v16.9.6 Fri Mar 20 15:43:33 2026

Tools Copyright (c) 1996-2017 Texas Instruments Incorporated
Clock.asm                                                            PAGE   19

     966                            .dwendtag $C$DW$T$30
     967                    
     968                    
     969                    $C$DW$T$31      .dwtag  DW_TAG_structure_type
     970                            .dwattr $C$DW$T$31, DW_AT_byte_size(0x02)
     971                    $C$DW$39        .dwtag  DW_TAG_member
     972                            .dwattr $C$DW$39, DW_AT_type(*$C$DW$T$24)
     973                            .dwattr $C$DW$39, DW_AT_name("DS_L")
     974                            .dwattr $C$DW$39, DW_AT_TI_symbol_name("DS_L")
     975                            .dwattr $C$DW$39, DW_AT_data_member_location[DW_OP_plus_uconst 0x0]
     976                            .dwattr $C$DW$39, DW_AT_accessibility(DW_ACCESS_public)
     977                            .dwattr $C$DW$39, DW_AT_decl_file("C:\ti\ccsv7\ccs_base\arm\include\msp432p401r.h")
     978                            .dwattr $C$DW$39, DW_AT_decl_line(0x26a)
     979                            .dwattr $C$DW$39, DW_AT_decl_column(0x14)
     980                    
     981                    $C$DW$40        .dwtag  DW_TAG_member
     982                            .dwattr $C$DW$40, DW_AT_type(*$C$DW$T$24)
     983                            .dwattr $C$DW$40, DW_AT_name("DS_H")
     984                            .dwattr $C$DW$40, DW_AT_TI_symbol_name("DS_H")
     985                            .dwattr $C$DW$40, DW_AT_data_member_location[DW_OP_plus_uconst 0x1]
     986                            .dwattr $C$DW$40, DW_AT_accessibility(DW_ACCESS_public)
     987                            .dwattr $C$DW$40, DW_AT_decl_file("C:\ti\ccsv7\ccs_base\arm\include\msp432p401r.h")
     988                            .dwattr $C$DW$40, DW_AT_decl_line(0x26b)
     989                            .dwattr $C$DW$40, DW_AT_decl_column(0x14)
     990                    
     991                            .dwattr $C$DW$T$31, DW_AT_decl_file("C:\ti\ccsv7\ccs_base\arm\include\msp432p401r.h")
     992                            .dwattr $C$DW$T$31, DW_AT_decl_line(0x269)
     993                            .dwattr $C$DW$T$31, DW_AT_decl_column(0x0c)
     994                            .dwendtag $C$DW$T$31
     995                    
     996                    
     997                    $C$DW$T$32      .dwtag  DW_TAG_structure_type
     998                            .dwattr $C$DW$T$32, DW_AT_byte_size(0x02)
     999                    $C$DW$41        .dwtag  DW_TAG_member
    1000                            .dwattr $C$DW$41, DW_AT_type(*$C$DW$T$24)
    1001                            .dwattr $C$DW$41, DW_AT_name("SEL1_L")
    1002                            .dwattr $C$DW$41, DW_AT_TI_symbol_name("SEL1_L")
    1003                            .dwattr $C$DW$41, DW_AT_data_member_location[DW_OP_plus_uconst 0x0]
    1004                            .dwattr $C$DW$41, DW_AT_accessibility(DW_ACCESS_public)
    1005                            .dwattr $C$DW$41, DW_AT_decl_file("C:\ti\ccsv7\ccs_base\arm\include\msp432p401r.h")
    1006                            .dwattr $C$DW$41, DW_AT_decl_line(0x278)
    1007                            .dwattr $C$DW$41, DW_AT_decl_column(0x14)
    1008                    
    1009                    $C$DW$42        .dwtag  DW_TAG_member
    1010                            .dwattr $C$DW$42, DW_AT_type(*$C$DW$T$24)
    1011                            .dwattr $C$DW$42, DW_AT_name("SEL1_H")
    1012                            .dwattr $C$DW$42, DW_AT_TI_symbol_name("SEL1_H")
    1013                            .dwattr $C$DW$42, DW_AT_data_member_location[DW_OP_plus_uconst 0x1]
    1014                            .dwattr $C$DW$42, DW_AT_accessibility(DW_ACCESS_public)
    1015                            .dwattr $C$DW$42, DW_AT_decl_file("C:\ti\ccsv7\ccs_base\arm\include\msp432p401r.h")
    1016                            .dwattr $C$DW$42, DW_AT_decl_line(0x279)
    1017                            .dwattr $C$DW$42, DW_AT_decl_column(0x14)
    1018                    
    1019                            .dwattr $C$DW$T$32, DW_AT_decl_file("C:\ti\ccsv7\ccs_base\arm\include\msp432p401r.h")
    1020                            .dwattr $C$DW$T$32, DW_AT_decl_line(0x277)
TI ARM Assembler PC v16.9.6 Fri Mar 20 15:43:33 2026

Tools Copyright (c) 1996-2017 Texas Instruments Incorporated
Clock.asm                                                            PAGE   20

    1021                            .dwattr $C$DW$T$32, DW_AT_decl_column(0x0c)
    1022                            .dwendtag $C$DW$T$32
    1023                    
    1024                    
    1025                    $C$DW$T$33      .dwtag  DW_TAG_structure_type
    1026                            .dwattr $C$DW$T$33, DW_AT_byte_size(0x02)
    1027                    $C$DW$43        .dwtag  DW_TAG_member
    1028                            .dwattr $C$DW$43, DW_AT_type(*$C$DW$T$24)
    1029                            .dwattr $C$DW$43, DW_AT_name("SELC_L")
    1030                            .dwattr $C$DW$43, DW_AT_TI_symbol_name("SELC_L")
    1031                            .dwattr $C$DW$43, DW_AT_data_member_location[DW_OP_plus_uconst 0x0]
    1032                            .dwattr $C$DW$43, DW_AT_accessibility(DW_ACCESS_public)
    1033                            .dwattr $C$DW$43, DW_AT_decl_file("C:\ti\ccsv7\ccs_base\arm\include\msp432p401r.h")
    1034                            .dwattr $C$DW$43, DW_AT_decl_line(0x280)
    1035                            .dwattr $C$DW$43, DW_AT_decl_column(0x14)
    1036                    
    1037                    $C$DW$44        .dwtag  DW_TAG_member
    1038                            .dwattr $C$DW$44, DW_AT_type(*$C$DW$T$24)
    1039                            .dwattr $C$DW$44, DW_AT_name("SELC_H")
    1040                            .dwattr $C$DW$44, DW_AT_TI_symbol_name("SELC_H")
    1041                            .dwattr $C$DW$44, DW_AT_data_member_location[DW_OP_plus_uconst 0x1]
    1042                            .dwattr $C$DW$44, DW_AT_accessibility(DW_ACCESS_public)
    1043                            .dwattr $C$DW$44, DW_AT_decl_file("C:\ti\ccsv7\ccs_base\arm\include\msp432p401r.h")
    1044                            .dwattr $C$DW$44, DW_AT_decl_line(0x281)
    1045                            .dwattr $C$DW$44, DW_AT_decl_column(0x14)
    1046                    
    1047                            .dwattr $C$DW$T$33, DW_AT_decl_file("C:\ti\ccsv7\ccs_base\arm\include\msp432p401r.h")
    1048                            .dwattr $C$DW$T$33, DW_AT_decl_line(0x27f)
    1049                            .dwattr $C$DW$T$33, DW_AT_decl_column(0x0c)
    1050                            .dwendtag $C$DW$T$33
    1051                    
    1052                    
    1053                    $C$DW$T$36      .dwtag  DW_TAG_structure_type
    1054                            .dwattr $C$DW$T$36, DW_AT_byte_size(0x18)
    1055                    $C$DW$45        .dwtag  DW_TAG_member
    1056                            .dwattr $C$DW$45, DW_AT_type(*$C$DW$T$146)
    1057                            .dwattr $C$DW$45, DW_AT_name("$P$T2")
    1058                            .dwattr $C$DW$45, DW_AT_TI_symbol_name("$P$T2")
    1059                            .dwattr $C$DW$45, DW_AT_data_member_location[DW_OP_plus_uconst 0x0]
    1060                            .dwattr $C$DW$45, DW_AT_accessibility(DW_ACCESS_public)
    1061                            .dwattr $C$DW$45, DW_AT_decl_file("C:\ti\ccsv7\ccs_base\arm\include\msp432p401r.h")
    1062                            .dwattr $C$DW$45, DW_AT_decl_line(0x24b)
    1063                            .dwattr $C$DW$45, DW_AT_decl_column(0x03)
    1064                    
    1065                    $C$DW$46        .dwtag  DW_TAG_member
    1066                            .dwattr $C$DW$46, DW_AT_type(*$C$DW$T$147)
    1067                            .dwattr $C$DW$46, DW_AT_name("$P$T4")
    1068                            .dwattr $C$DW$46, DW_AT_TI_symbol_name("$P$T4")
    1069                            .dwattr $C$DW$46, DW_AT_data_member_location[DW_OP_plus_uconst 0x2]
    1070                            .dwattr $C$DW$46, DW_AT_accessibility(DW_ACCESS_public)
    1071                            .dwattr $C$DW$46, DW_AT_decl_file("C:\ti\ccsv7\ccs_base\arm\include\msp432p401r.h")
    1072                            .dwattr $C$DW$46, DW_AT_decl_line(0x252)
    1073                            .dwattr $C$DW$46, DW_AT_decl_column(0x03)
    1074                    
    1075                    $C$DW$47        .dwtag  DW_TAG_member
TI ARM Assembler PC v16.9.6 Fri Mar 20 15:43:33 2026

Tools Copyright (c) 1996-2017 Texas Instruments Incorporated
Clock.asm                                                            PAGE   21

    1076                            .dwattr $C$DW$47, DW_AT_type(*$C$DW$T$148)
    1077                            .dwattr $C$DW$47, DW_AT_name("$P$T6")
    1078                            .dwattr $C$DW$47, DW_AT_TI_symbol_name("$P$T6")
    1079                            .dwattr $C$DW$47, DW_AT_data_member_location[DW_OP_plus_uconst 0x4]
    1080                            .dwattr $C$DW$47, DW_AT_accessibility(DW_ACCESS_public)
    1081                            .dwattr $C$DW$47, DW_AT_decl_file("C:\ti\ccsv7\ccs_base\arm\include\msp432p401r.h")
    1082                            .dwattr $C$DW$47, DW_AT_decl_line(0x259)
    1083                            .dwattr $C$DW$47, DW_AT_decl_column(0x03)
    1084                    
    1085                    $C$DW$48        .dwtag  DW_TAG_member
    1086                            .dwattr $C$DW$48, DW_AT_type(*$C$DW$T$149)
    1087                            .dwattr $C$DW$48, DW_AT_name("$P$T8")
    1088                            .dwattr $C$DW$48, DW_AT_TI_symbol_name("$P$T8")
    1089                            .dwattr $C$DW$48, DW_AT_data_member_location[DW_OP_plus_uconst 0x6]
    1090                            .dwattr $C$DW$48, DW_AT_accessibility(DW_ACCESS_public)
    1091                            .dwattr $C$DW$48, DW_AT_decl_file("C:\ti\ccsv7\ccs_base\arm\include\msp432p401r.h")
    1092                            .dwattr $C$DW$48, DW_AT_decl_line(0x260)
    1093                            .dwattr $C$DW$48, DW_AT_decl_column(0x03)
    1094                    
    1095                    $C$DW$49        .dwtag  DW_TAG_member
    1096                            .dwattr $C$DW$49, DW_AT_type(*$C$DW$T$150)
    1097                            .dwattr $C$DW$49, DW_AT_name("$P$T10")
    1098                            .dwattr $C$DW$49, DW_AT_TI_symbol_name("$P$T10")
    1099                            .dwattr $C$DW$49, DW_AT_data_member_location[DW_OP_plus_uconst 0x8]
    1100                            .dwattr $C$DW$49, DW_AT_accessibility(DW_ACCESS_public)
    1101                            .dwattr $C$DW$49, DW_AT_decl_file("C:\ti\ccsv7\ccs_base\arm\include\msp432p401r.h")
    1102                            .dwattr $C$DW$49, DW_AT_decl_line(0x267)
    1103                            .dwattr $C$DW$49, DW_AT_decl_column(0x03)
    1104                    
    1105                    $C$DW$50        .dwtag  DW_TAG_member
    1106                            .dwattr $C$DW$50, DW_AT_type(*$C$DW$T$145)
    1107                            .dwattr $C$DW$50, DW_AT_name("$P$T11")
    1108                            .dwattr $C$DW$50, DW_AT_TI_symbol_name("$P$T11")
    1109                            .dwattr $C$DW$50, DW_AT_data_member_location[DW_OP_plus_uconst 0xa]
    1110                            .dwattr $C$DW$50, DW_AT_accessibility(DW_ACCESS_public)
    1111                            .dwattr $C$DW$50, DW_AT_decl_file("C:\ti\ccsv7\ccs_base\arm\include\msp432p401r.h")
    1112                            .dwattr $C$DW$50, DW_AT_decl_line(0x26e)
    1113                            .dwattr $C$DW$50, DW_AT_decl_column(0x03)
    1114                    
    1115                    $C$DW$51        .dwtag  DW_TAG_member
    1116                            .dwattr $C$DW$51, DW_AT_type(*$C$DW$T$151)
    1117                            .dwattr $C$DW$51, DW_AT_name("$P$T13")
    1118                            .dwattr $C$DW$51, DW_AT_TI_symbol_name("$P$T13")
    1119                            .dwattr $C$DW$51, DW_AT_data_member_location[DW_OP_plus_uconst 0xc]
    1120                            .dwattr $C$DW$51, DW_AT_accessibility(DW_ACCESS_public)
    1121                            .dwattr $C$DW$51, DW_AT_decl_file("C:\ti\ccsv7\ccs_base\arm\include\msp432p401r.h")
    1122                            .dwattr $C$DW$51, DW_AT_decl_line(0x275)
    1123                            .dwattr $C$DW$51, DW_AT_decl_column(0x03)
    1124                    
    1125                    $C$DW$52        .dwtag  DW_TAG_member
    1126                            .dwattr $C$DW$52, DW_AT_type(*$C$DW$T$35)
    1127                            .dwattr $C$DW$52, DW_AT_name("RESERVED0")
    1128                            .dwattr $C$DW$52, DW_AT_TI_symbol_name("RESERVED0")
    1129                            .dwattr $C$DW$52, DW_AT_data_member_location[DW_OP_plus_uconst 0xe]
    1130                            .dwattr $C$DW$52, DW_AT_accessibility(DW_ACCESS_public)
TI ARM Assembler PC v16.9.6 Fri Mar 20 15:43:33 2026

Tools Copyright (c) 1996-2017 Texas Instruments Incorporated
Clock.asm                                                            PAGE   22

    1131                            .dwattr $C$DW$52, DW_AT_decl_file("C:\ti\ccsv7\ccs_base\arm\include\msp432p401r.h")
    1132                            .dwattr $C$DW$52, DW_AT_decl_line(0x27c)
    1133                            .dwattr $C$DW$52, DW_AT_decl_column(0x0d)
    1134                    
    1135                    $C$DW$53        .dwtag  DW_TAG_member
    1136                            .dwattr $C$DW$53, DW_AT_type(*$C$DW$T$152)
    1137                            .dwattr $C$DW$53, DW_AT_name("$P$T15")
    1138                            .dwattr $C$DW$53, DW_AT_TI_symbol_name("$P$T15")
    1139                            .dwattr $C$DW$53, DW_AT_data_member_location[DW_OP_plus_uconst 0x16]
    1140                            .dwattr $C$DW$53, DW_AT_accessibility(DW_ACCESS_public)
    1141                            .dwattr $C$DW$53, DW_AT_decl_file("C:\ti\ccsv7\ccs_base\arm\include\msp432p401r.h")
    1142                            .dwattr $C$DW$53, DW_AT_decl_line(0x27d)
    1143                            .dwattr $C$DW$53, DW_AT_decl_column(0x03)
    1144                    
    1145                            .dwattr $C$DW$T$36, DW_AT_decl_file("C:\ti\ccsv7\ccs_base\arm\include\msp432p401r.h")
    1146                            .dwattr $C$DW$T$36, DW_AT_decl_line(0x24a)
    1147                            .dwattr $C$DW$T$36, DW_AT_decl_column(0x10)
    1148                            .dwendtag $C$DW$T$36
    1149                    
    1150                    $C$DW$T$174     .dwtag  DW_TAG_typedef
    1151                            .dwattr $C$DW$T$174, DW_AT_name("DIO_PORT_Not_Interruptable_Type")
    1152                            .dwattr $C$DW$T$174, DW_AT_type(*$C$DW$T$36)
    1153                            .dwattr $C$DW$T$174, DW_AT_language(DW_LANG_C)
    1154                            .dwattr $C$DW$T$174, DW_AT_decl_file("C:\ti\ccsv7\ccs_base\arm\include\msp432p401r.h")
    1155                            .dwattr $C$DW$T$174, DW_AT_decl_line(0x284)
    1156                            .dwattr $C$DW$T$174, DW_AT_decl_column(0x03)
    1157                    
    1158                    
    1159                    $C$DW$T$39      .dwtag  DW_TAG_structure_type
    1160                            .dwattr $C$DW$T$39, DW_AT_byte_size(0x68)
    1161                    $C$DW$54        .dwtag  DW_TAG_member
    1162                            .dwattr $C$DW$54, DW_AT_type(*$C$DW$T$20)
    1163                            .dwattr $C$DW$54, DW_AT_name("KEY")
    1164                            .dwattr $C$DW$54, DW_AT_TI_symbol_name("KEY")
    1165                            .dwattr $C$DW$54, DW_AT_data_member_location[DW_OP_plus_uconst 0x0]
    1166                            .dwattr $C$DW$54, DW_AT_accessibility(DW_ACCESS_public)
    1167                            .dwattr $C$DW$54, DW_AT_decl_file("C:\ti\ccsv7\ccs_base\arm\include\msp432p401r.h")
    1168                            .dwattr $C$DW$54, DW_AT_decl_line(0x1d9)
    1169                            .dwattr $C$DW$54, DW_AT_decl_column(0x11)
    1170                    
    1171                    $C$DW$55        .dwtag  DW_TAG_member
    1172                            .dwattr $C$DW$55, DW_AT_type(*$C$DW$T$20)
    1173                            .dwattr $C$DW$55, DW_AT_name("CTL0")
    1174                            .dwattr $C$DW$55, DW_AT_TI_symbol_name("CTL0")
    1175                            .dwattr $C$DW$55, DW_AT_data_member_location[DW_OP_plus_uconst 0x4]
    1176                            .dwattr $C$DW$55, DW_AT_accessibility(DW_ACCESS_public)
    1177                            .dwattr $C$DW$55, DW_AT_decl_file("C:\ti\ccsv7\ccs_base\arm\include\msp432p401r.h")
    1178                            .dwattr $C$DW$55, DW_AT_decl_line(0x1da)
    1179                            .dwattr $C$DW$55, DW_AT_decl_column(0x11)
    1180                    
    1181                    $C$DW$56        .dwtag  DW_TAG_member
    1182                            .dwattr $C$DW$56, DW_AT_type(*$C$DW$T$20)
    1183                            .dwattr $C$DW$56, DW_AT_name("CTL1")
    1184                            .dwattr $C$DW$56, DW_AT_TI_symbol_name("CTL1")
    1185                            .dwattr $C$DW$56, DW_AT_data_member_location[DW_OP_plus_uconst 0x8]
TI ARM Assembler PC v16.9.6 Fri Mar 20 15:43:33 2026

Tools Copyright (c) 1996-2017 Texas Instruments Incorporated
Clock.asm                                                            PAGE   23

    1186                            .dwattr $C$DW$56, DW_AT_accessibility(DW_ACCESS_public)
    1187                            .dwattr $C$DW$56, DW_AT_decl_file("C:\ti\ccsv7\ccs_base\arm\include\msp432p401r.h")
    1188                            .dwattr $C$DW$56, DW_AT_decl_line(0x1db)
    1189                            .dwattr $C$DW$56, DW_AT_decl_column(0x11)
    1190                    
    1191                    $C$DW$57        .dwtag  DW_TAG_member
    1192                            .dwattr $C$DW$57, DW_AT_type(*$C$DW$T$20)
    1193                            .dwattr $C$DW$57, DW_AT_name("CTL2")
    1194                            .dwattr $C$DW$57, DW_AT_TI_symbol_name("CTL2")
    1195                            .dwattr $C$DW$57, DW_AT_data_member_location[DW_OP_plus_uconst 0xc]
    1196                            .dwattr $C$DW$57, DW_AT_accessibility(DW_ACCESS_public)
    1197                            .dwattr $C$DW$57, DW_AT_decl_file("C:\ti\ccsv7\ccs_base\arm\include\msp432p401r.h")
    1198                            .dwattr $C$DW$57, DW_AT_decl_line(0x1dc)
    1199                            .dwattr $C$DW$57, DW_AT_decl_column(0x11)
    1200                    
    1201                    $C$DW$58        .dwtag  DW_TAG_member
    1202                            .dwattr $C$DW$58, DW_AT_type(*$C$DW$T$20)
    1203                            .dwattr $C$DW$58, DW_AT_name("CTL3")
    1204                            .dwattr $C$DW$58, DW_AT_TI_symbol_name("CTL3")
    1205                            .dwattr $C$DW$58, DW_AT_data_member_location[DW_OP_plus_uconst 0x10]
    1206                            .dwattr $C$DW$58, DW_AT_accessibility(DW_ACCESS_public)
    1207                            .dwattr $C$DW$58, DW_AT_decl_file("C:\ti\ccsv7\ccs_base\arm\include\msp432p401r.h")
    1208                            .dwattr $C$DW$58, DW_AT_decl_line(0x1dd)
    1209                            .dwattr $C$DW$58, DW_AT_decl_column(0x11)
    1210                    
    1211                    $C$DW$59        .dwtag  DW_TAG_member
    1212                            .dwattr $C$DW$59, DW_AT_type(*$C$DW$T$37)
    1213                            .dwattr $C$DW$59, DW_AT_name("RESERVED0")
    1214                            .dwattr $C$DW$59, DW_AT_TI_symbol_name("RESERVED0")
    1215                            .dwattr $C$DW$59, DW_AT_data_member_location[DW_OP_plus_uconst 0x14]
    1216                            .dwattr $C$DW$59, DW_AT_accessibility(DW_ACCESS_public)
    1217                            .dwattr $C$DW$59, DW_AT_decl_file("C:\ti\ccsv7\ccs_base\arm\include\msp432p401r.h")
    1218                            .dwattr $C$DW$59, DW_AT_decl_line(0x1de)
    1219                            .dwattr $C$DW$59, DW_AT_decl_column(0x11)
    1220                    
    1221                    $C$DW$60        .dwtag  DW_TAG_member
    1222                            .dwattr $C$DW$60, DW_AT_type(*$C$DW$T$20)
    1223                            .dwattr $C$DW$60, DW_AT_name("CLKEN")
    1224                            .dwattr $C$DW$60, DW_AT_TI_symbol_name("CLKEN")
    1225                            .dwattr $C$DW$60, DW_AT_data_member_location[DW_OP_plus_uconst 0x30]
    1226                            .dwattr $C$DW$60, DW_AT_accessibility(DW_ACCESS_public)
    1227                            .dwattr $C$DW$60, DW_AT_decl_file("C:\ti\ccsv7\ccs_base\arm\include\msp432p401r.h")
    1228                            .dwattr $C$DW$60, DW_AT_decl_line(0x1df)
    1229                            .dwattr $C$DW$60, DW_AT_decl_column(0x11)
    1230                    
    1231                    $C$DW$61        .dwtag  DW_TAG_member
    1232                            .dwattr $C$DW$61, DW_AT_type(*$C$DW$T$21)
    1233                            .dwattr $C$DW$61, DW_AT_name("STAT")
    1234                            .dwattr $C$DW$61, DW_AT_TI_symbol_name("STAT")
    1235                            .dwattr $C$DW$61, DW_AT_data_member_location[DW_OP_plus_uconst 0x34]
    1236                            .dwattr $C$DW$61, DW_AT_accessibility(DW_ACCESS_public)
    1237                            .dwattr $C$DW$61, DW_AT_decl_file("C:\ti\ccsv7\ccs_base\arm\include\msp432p401r.h")
    1238                            .dwattr $C$DW$61, DW_AT_decl_line(0x1e0)
    1239                            .dwattr $C$DW$61, DW_AT_decl_column(0x11)
    1240                    
TI ARM Assembler PC v16.9.6 Fri Mar 20 15:43:33 2026

Tools Copyright (c) 1996-2017 Texas Instruments Incorporated
Clock.asm                                                            PAGE   24

    1241                    $C$DW$62        .dwtag  DW_TAG_member
    1242                            .dwattr $C$DW$62, DW_AT_type(*$C$DW$T$38)
    1243                            .dwattr $C$DW$62, DW_AT_name("RESERVED1")
    1244                            .dwattr $C$DW$62, DW_AT_TI_symbol_name("RESERVED1")
    1245                            .dwattr $C$DW$62, DW_AT_data_member_location[DW_OP_plus_uconst 0x38]
    1246                            .dwattr $C$DW$62, DW_AT_accessibility(DW_ACCESS_public)
    1247                            .dwattr $C$DW$62, DW_AT_decl_file("C:\ti\ccsv7\ccs_base\arm\include\msp432p401r.h")
    1248                            .dwattr $C$DW$62, DW_AT_decl_line(0x1e1)
    1249                            .dwattr $C$DW$62, DW_AT_decl_column(0x11)
    1250                    
    1251                    $C$DW$63        .dwtag  DW_TAG_member
    1252                            .dwattr $C$DW$63, DW_AT_type(*$C$DW$T$20)
    1253                            .dwattr $C$DW$63, DW_AT_name("IE")
    1254                            .dwattr $C$DW$63, DW_AT_TI_symbol_name("IE")
    1255                            .dwattr $C$DW$63, DW_AT_data_member_location[DW_OP_plus_uconst 0x40]
    1256                            .dwattr $C$DW$63, DW_AT_accessibility(DW_ACCESS_public)
    1257                            .dwattr $C$DW$63, DW_AT_decl_file("C:\ti\ccsv7\ccs_base\arm\include\msp432p401r.h")
    1258                            .dwattr $C$DW$63, DW_AT_decl_line(0x1e2)
    1259                            .dwattr $C$DW$63, DW_AT_decl_column(0x11)
    1260                    
    1261                    $C$DW$64        .dwtag  DW_TAG_member
    1262                            .dwattr $C$DW$64, DW_AT_type(*$C$DW$T$19)
    1263                            .dwattr $C$DW$64, DW_AT_name("RESERVED2")
    1264                            .dwattr $C$DW$64, DW_AT_TI_symbol_name("RESERVED2")
    1265                            .dwattr $C$DW$64, DW_AT_data_member_location[DW_OP_plus_uconst 0x44]
    1266                            .dwattr $C$DW$64, DW_AT_accessibility(DW_ACCESS_public)
    1267                            .dwattr $C$DW$64, DW_AT_decl_file("C:\ti\ccsv7\ccs_base\arm\include\msp432p401r.h")
    1268                            .dwattr $C$DW$64, DW_AT_decl_line(0x1e3)
    1269                            .dwattr $C$DW$64, DW_AT_decl_column(0x11)
    1270                    
    1271                    $C$DW$65        .dwtag  DW_TAG_member
    1272                            .dwattr $C$DW$65, DW_AT_type(*$C$DW$T$21)
    1273                            .dwattr $C$DW$65, DW_AT_name("IFG")
    1274                            .dwattr $C$DW$65, DW_AT_TI_symbol_name("IFG")
    1275                            .dwattr $C$DW$65, DW_AT_data_member_location[DW_OP_plus_uconst 0x48]
    1276                            .dwattr $C$DW$65, DW_AT_accessibility(DW_ACCESS_public)
    1277                            .dwattr $C$DW$65, DW_AT_decl_file("C:\ti\ccsv7\ccs_base\arm\include\msp432p401r.h")
    1278                            .dwattr $C$DW$65, DW_AT_decl_line(0x1e4)
    1279                            .dwattr $C$DW$65, DW_AT_decl_column(0x11)
    1280                    
    1281                    $C$DW$66        .dwtag  DW_TAG_member
    1282                            .dwattr $C$DW$66, DW_AT_type(*$C$DW$T$19)
    1283                            .dwattr $C$DW$66, DW_AT_name("RESERVED3")
    1284                            .dwattr $C$DW$66, DW_AT_TI_symbol_name("RESERVED3")
    1285                            .dwattr $C$DW$66, DW_AT_data_member_location[DW_OP_plus_uconst 0x4c]
    1286                            .dwattr $C$DW$66, DW_AT_accessibility(DW_ACCESS_public)
    1287                            .dwattr $C$DW$66, DW_AT_decl_file("C:\ti\ccsv7\ccs_base\arm\include\msp432p401r.h")
    1288                            .dwattr $C$DW$66, DW_AT_decl_line(0x1e5)
    1289                            .dwattr $C$DW$66, DW_AT_decl_column(0x11)
    1290                    
    1291                    $C$DW$67        .dwtag  DW_TAG_member
    1292                            .dwattr $C$DW$67, DW_AT_type(*$C$DW$T$20)
    1293                            .dwattr $C$DW$67, DW_AT_name("CLRIFG")
    1294                            .dwattr $C$DW$67, DW_AT_TI_symbol_name("CLRIFG")
    1295                            .dwattr $C$DW$67, DW_AT_data_member_location[DW_OP_plus_uconst 0x50]
TI ARM Assembler PC v16.9.6 Fri Mar 20 15:43:33 2026

Tools Copyright (c) 1996-2017 Texas Instruments Incorporated
Clock.asm                                                            PAGE   25

    1296                            .dwattr $C$DW$67, DW_AT_accessibility(DW_ACCESS_public)
    1297                            .dwattr $C$DW$67, DW_AT_decl_file("C:\ti\ccsv7\ccs_base\arm\include\msp432p401r.h")
    1298                            .dwattr $C$DW$67, DW_AT_decl_line(0x1e6)
    1299                            .dwattr $C$DW$67, DW_AT_decl_column(0x11)
    1300                    
    1301                    $C$DW$68        .dwtag  DW_TAG_member
    1302                            .dwattr $C$DW$68, DW_AT_type(*$C$DW$T$19)
    1303                            .dwattr $C$DW$68, DW_AT_name("RESERVED4")
    1304                            .dwattr $C$DW$68, DW_AT_TI_symbol_name("RESERVED4")
    1305                            .dwattr $C$DW$68, DW_AT_data_member_location[DW_OP_plus_uconst 0x54]
    1306                            .dwattr $C$DW$68, DW_AT_accessibility(DW_ACCESS_public)
    1307                            .dwattr $C$DW$68, DW_AT_decl_file("C:\ti\ccsv7\ccs_base\arm\include\msp432p401r.h")
    1308                            .dwattr $C$DW$68, DW_AT_decl_line(0x1e7)
    1309                            .dwattr $C$DW$68, DW_AT_decl_column(0x11)
    1310                    
    1311                    $C$DW$69        .dwtag  DW_TAG_member
    1312                            .dwattr $C$DW$69, DW_AT_type(*$C$DW$T$20)
    1313                            .dwattr $C$DW$69, DW_AT_name("SETIFG")
    1314                            .dwattr $C$DW$69, DW_AT_TI_symbol_name("SETIFG")
    1315                            .dwattr $C$DW$69, DW_AT_data_member_location[DW_OP_plus_uconst 0x58]
    1316                            .dwattr $C$DW$69, DW_AT_accessibility(DW_ACCESS_public)
    1317                            .dwattr $C$DW$69, DW_AT_decl_file("C:\ti\ccsv7\ccs_base\arm\include\msp432p401r.h")
    1318                            .dwattr $C$DW$69, DW_AT_decl_line(0x1e8)
    1319                            .dwattr $C$DW$69, DW_AT_decl_column(0x11)
    1320                    
    1321                    $C$DW$70        .dwtag  DW_TAG_member
    1322                            .dwattr $C$DW$70, DW_AT_type(*$C$DW$T$19)
    1323                            .dwattr $C$DW$70, DW_AT_name("RESERVED5")
    1324                            .dwattr $C$DW$70, DW_AT_TI_symbol_name("RESERVED5")
    1325                            .dwattr $C$DW$70, DW_AT_data_member_location[DW_OP_plus_uconst 0x5c]
    1326                            .dwattr $C$DW$70, DW_AT_accessibility(DW_ACCESS_public)
    1327                            .dwattr $C$DW$70, DW_AT_decl_file("C:\ti\ccsv7\ccs_base\arm\include\msp432p401r.h")
    1328                            .dwattr $C$DW$70, DW_AT_decl_line(0x1e9)
    1329                            .dwattr $C$DW$70, DW_AT_decl_column(0x11)
    1330                    
    1331                    $C$DW$71        .dwtag  DW_TAG_member
    1332                            .dwattr $C$DW$71, DW_AT_type(*$C$DW$T$20)
    1333                            .dwattr $C$DW$71, DW_AT_name("DCOERCAL0")
    1334                            .dwattr $C$DW$71, DW_AT_TI_symbol_name("DCOERCAL0")
    1335                            .dwattr $C$DW$71, DW_AT_data_member_location[DW_OP_plus_uconst 0x60]
    1336                            .dwattr $C$DW$71, DW_AT_accessibility(DW_ACCESS_public)
    1337                            .dwattr $C$DW$71, DW_AT_decl_file("C:\ti\ccsv7\ccs_base\arm\include\msp432p401r.h")
    1338                            .dwattr $C$DW$71, DW_AT_decl_line(0x1ea)
    1339                            .dwattr $C$DW$71, DW_AT_decl_column(0x11)
    1340                    
    1341                    $C$DW$72        .dwtag  DW_TAG_member
    1342                            .dwattr $C$DW$72, DW_AT_type(*$C$DW$T$20)
    1343                            .dwattr $C$DW$72, DW_AT_name("DCOERCAL1")
    1344                            .dwattr $C$DW$72, DW_AT_TI_symbol_name("DCOERCAL1")
    1345                            .dwattr $C$DW$72, DW_AT_data_member_location[DW_OP_plus_uconst 0x64]
    1346                            .dwattr $C$DW$72, DW_AT_accessibility(DW_ACCESS_public)
    1347                            .dwattr $C$DW$72, DW_AT_decl_file("C:\ti\ccsv7\ccs_base\arm\include\msp432p401r.h")
    1348                            .dwattr $C$DW$72, DW_AT_decl_line(0x1eb)
    1349                            .dwattr $C$DW$72, DW_AT_decl_column(0x11)
    1350                    
TI ARM Assembler PC v16.9.6 Fri Mar 20 15:43:33 2026

Tools Copyright (c) 1996-2017 Texas Instruments Incorporated
Clock.asm                                                            PAGE   26

    1351                            .dwattr $C$DW$T$39, DW_AT_decl_file("C:\ti\ccsv7\ccs_base\arm\include\msp432p401r.h")
    1352                            .dwattr $C$DW$T$39, DW_AT_decl_line(0x1d8)
    1353                            .dwattr $C$DW$T$39, DW_AT_decl_column(0x10)
    1354                            .dwendtag $C$DW$T$39
    1355                    
    1356                    $C$DW$T$176     .dwtag  DW_TAG_typedef
    1357                            .dwattr $C$DW$T$176, DW_AT_name("CS_Type")
    1358                            .dwattr $C$DW$T$176, DW_AT_type(*$C$DW$T$39)
    1359                            .dwattr $C$DW$T$176, DW_AT_language(DW_LANG_C)
    1360                            .dwattr $C$DW$T$176, DW_AT_decl_file("C:\ti\ccsv7\ccs_base\arm\include\msp432p401r.h")
    1361                            .dwattr $C$DW$T$176, DW_AT_decl_line(0x1ec)
    1362                            .dwattr $C$DW$T$176, DW_AT_decl_column(0x03)
    1363                    
    1364                    
    1365                    $C$DW$T$42      .dwtag  DW_TAG_structure_type
    1366                            .dwattr $C$DW$T$42, DW_AT_byte_size(0x124)
    1367                    $C$DW$73        .dwtag  DW_TAG_member
    1368                            .dwattr $C$DW$73, DW_AT_type(*$C$DW$T$21)
    1369                            .dwattr $C$DW$73, DW_AT_name("POWER_STAT")
    1370                            .dwattr $C$DW$73, DW_AT_TI_symbol_name("POWER_STAT")
    1371                            .dwattr $C$DW$73, DW_AT_data_member_location[DW_OP_plus_uconst 0x0]
    1372                            .dwattr $C$DW$73, DW_AT_accessibility(DW_ACCESS_public)
    1373                            .dwattr $C$DW$73, DW_AT_decl_file("C:\ti\ccsv7\ccs_base\arm\include\msp432p401r.h")
    1374                            .dwattr $C$DW$73, DW_AT_decl_line(0x352)
    1375                            .dwattr $C$DW$73, DW_AT_decl_column(0x11)
    1376                    
    1377                    $C$DW$74        .dwtag  DW_TAG_member
    1378                            .dwattr $C$DW$74, DW_AT_type(*$C$DW$T$40)
    1379                            .dwattr $C$DW$74, DW_AT_name("RESERVED0")
    1380                            .dwattr $C$DW$74, DW_AT_TI_symbol_name("RESERVED0")
    1381                            .dwattr $C$DW$74, DW_AT_data_member_location[DW_OP_plus_uconst 0x4]
    1382                            .dwattr $C$DW$74, DW_AT_accessibility(DW_ACCESS_public)
    1383                            .dwattr $C$DW$74, DW_AT_decl_file("C:\ti\ccsv7\ccs_base\arm\include\msp432p401r.h")
    1384                            .dwattr $C$DW$74, DW_AT_decl_line(0x353)
    1385                            .dwattr $C$DW$74, DW_AT_decl_column(0x11)
    1386                    
    1387                    $C$DW$75        .dwtag  DW_TAG_member
    1388                            .dwattr $C$DW$75, DW_AT_type(*$C$DW$T$20)
    1389                            .dwattr $C$DW$75, DW_AT_name("BANK0_RDCTL")
    1390                            .dwattr $C$DW$75, DW_AT_TI_symbol_name("BANK0_RDCTL")
    1391                            .dwattr $C$DW$75, DW_AT_data_member_location[DW_OP_plus_uconst 0x10]
    1392                            .dwattr $C$DW$75, DW_AT_accessibility(DW_ACCESS_public)
    1393                            .dwattr $C$DW$75, DW_AT_decl_file("C:\ti\ccsv7\ccs_base\arm\include\msp432p401r.h")
    1394                            .dwattr $C$DW$75, DW_AT_decl_line(0x354)
    1395                            .dwattr $C$DW$75, DW_AT_decl_column(0x11)
    1396                    
    1397                    $C$DW$76        .dwtag  DW_TAG_member
    1398                            .dwattr $C$DW$76, DW_AT_type(*$C$DW$T$20)
    1399                            .dwattr $C$DW$76, DW_AT_name("BANK1_RDCTL")
    1400                            .dwattr $C$DW$76, DW_AT_TI_symbol_name("BANK1_RDCTL")
    1401                            .dwattr $C$DW$76, DW_AT_data_member_location[DW_OP_plus_uconst 0x14]
    1402                            .dwattr $C$DW$76, DW_AT_accessibility(DW_ACCESS_public)
    1403                            .dwattr $C$DW$76, DW_AT_decl_file("C:\ti\ccsv7\ccs_base\arm\include\msp432p401r.h")
    1404                            .dwattr $C$DW$76, DW_AT_decl_line(0x355)
    1405                            .dwattr $C$DW$76, DW_AT_decl_column(0x11)
TI ARM Assembler PC v16.9.6 Fri Mar 20 15:43:33 2026

Tools Copyright (c) 1996-2017 Texas Instruments Incorporated
Clock.asm                                                            PAGE   27

    1406                    
    1407                    $C$DW$77        .dwtag  DW_TAG_member
    1408                            .dwattr $C$DW$77, DW_AT_type(*$C$DW$T$38)
    1409                            .dwattr $C$DW$77, DW_AT_name("RESERVED1")
    1410                            .dwattr $C$DW$77, DW_AT_TI_symbol_name("RESERVED1")
    1411                            .dwattr $C$DW$77, DW_AT_data_member_location[DW_OP_plus_uconst 0x18]
    1412                            .dwattr $C$DW$77, DW_AT_accessibility(DW_ACCESS_public)
    1413                            .dwattr $C$DW$77, DW_AT_decl_file("C:\ti\ccsv7\ccs_base\arm\include\msp432p401r.h")
    1414                            .dwattr $C$DW$77, DW_AT_decl_line(0x356)
    1415                            .dwattr $C$DW$77, DW_AT_decl_column(0x11)
    1416                    
    1417                    $C$DW$78        .dwtag  DW_TAG_member
    1418                            .dwattr $C$DW$78, DW_AT_type(*$C$DW$T$20)
    1419                            .dwattr $C$DW$78, DW_AT_name("RDBRST_CTLSTAT")
    1420                            .dwattr $C$DW$78, DW_AT_TI_symbol_name("RDBRST_CTLSTAT")
    1421                            .dwattr $C$DW$78, DW_AT_data_member_location[DW_OP_plus_uconst 0x20]
    1422                            .dwattr $C$DW$78, DW_AT_accessibility(DW_ACCESS_public)
    1423                            .dwattr $C$DW$78, DW_AT_decl_file("C:\ti\ccsv7\ccs_base\arm\include\msp432p401r.h")
    1424                            .dwattr $C$DW$78, DW_AT_decl_line(0x357)
    1425                            .dwattr $C$DW$78, DW_AT_decl_column(0x11)
    1426                    
    1427                    $C$DW$79        .dwtag  DW_TAG_member
    1428                            .dwattr $C$DW$79, DW_AT_type(*$C$DW$T$20)
    1429                            .dwattr $C$DW$79, DW_AT_name("RDBRST_STARTADDR")
    1430                            .dwattr $C$DW$79, DW_AT_TI_symbol_name("RDBRST_STARTADDR")
    1431                            .dwattr $C$DW$79, DW_AT_data_member_location[DW_OP_plus_uconst 0x24]
    1432                            .dwattr $C$DW$79, DW_AT_accessibility(DW_ACCESS_public)
    1433                            .dwattr $C$DW$79, DW_AT_decl_file("C:\ti\ccsv7\ccs_base\arm\include\msp432p401r.h")
    1434                            .dwattr $C$DW$79, DW_AT_decl_line(0x358)
    1435                            .dwattr $C$DW$79, DW_AT_decl_column(0x11)
    1436                    
    1437                    $C$DW$80        .dwtag  DW_TAG_member
    1438                            .dwattr $C$DW$80, DW_AT_type(*$C$DW$T$20)
    1439                            .dwattr $C$DW$80, DW_AT_name("RDBRST_LEN")
    1440                            .dwattr $C$DW$80, DW_AT_TI_symbol_name("RDBRST_LEN")
    1441                            .dwattr $C$DW$80, DW_AT_data_member_location[DW_OP_plus_uconst 0x28]
    1442                            .dwattr $C$DW$80, DW_AT_accessibility(DW_ACCESS_public)
    1443                            .dwattr $C$DW$80, DW_AT_decl_file("C:\ti\ccsv7\ccs_base\arm\include\msp432p401r.h")
    1444                            .dwattr $C$DW$80, DW_AT_decl_line(0x359)
    1445                            .dwattr $C$DW$80, DW_AT_decl_column(0x11)
    1446                    
    1447                    $C$DW$81        .dwtag  DW_TAG_member
    1448                            .dwattr $C$DW$81, DW_AT_type(*$C$DW$T$41)
    1449                            .dwattr $C$DW$81, DW_AT_name("RESERVED2")
    1450                            .dwattr $C$DW$81, DW_AT_TI_symbol_name("RESERVED2")
    1451                            .dwattr $C$DW$81, DW_AT_data_member_location[DW_OP_plus_uconst 0x2c]
    1452                            .dwattr $C$DW$81, DW_AT_accessibility(DW_ACCESS_public)
    1453                            .dwattr $C$DW$81, DW_AT_decl_file("C:\ti\ccsv7\ccs_base\arm\include\msp432p401r.h")
    1454                            .dwattr $C$DW$81, DW_AT_decl_line(0x35a)
    1455                            .dwattr $C$DW$81, DW_AT_decl_column(0x11)
    1456                    
    1457                    $C$DW$82        .dwtag  DW_TAG_member
    1458                            .dwattr $C$DW$82, DW_AT_type(*$C$DW$T$20)
    1459                            .dwattr $C$DW$82, DW_AT_name("RDBRST_FAILADDR")
    1460                            .dwattr $C$DW$82, DW_AT_TI_symbol_name("RDBRST_FAILADDR")
TI ARM Assembler PC v16.9.6 Fri Mar 20 15:43:33 2026

Tools Copyright (c) 1996-2017 Texas Instruments Incorporated
Clock.asm                                                            PAGE   28

    1461                            .dwattr $C$DW$82, DW_AT_data_member_location[DW_OP_plus_uconst 0x3c]
    1462                            .dwattr $C$DW$82, DW_AT_accessibility(DW_ACCESS_public)
    1463                            .dwattr $C$DW$82, DW_AT_decl_file("C:\ti\ccsv7\ccs_base\arm\include\msp432p401r.h")
    1464                            .dwattr $C$DW$82, DW_AT_decl_line(0x35b)
    1465                            .dwattr $C$DW$82, DW_AT_decl_column(0x11)
    1466                    
    1467                    $C$DW$83        .dwtag  DW_TAG_member
    1468                            .dwattr $C$DW$83, DW_AT_type(*$C$DW$T$20)
    1469                            .dwattr $C$DW$83, DW_AT_name("RDBRST_FAILCNT")
    1470                            .dwattr $C$DW$83, DW_AT_TI_symbol_name("RDBRST_FAILCNT")
    1471                            .dwattr $C$DW$83, DW_AT_data_member_location[DW_OP_plus_uconst 0x40]
    1472                            .dwattr $C$DW$83, DW_AT_accessibility(DW_ACCESS_public)
    1473                            .dwattr $C$DW$83, DW_AT_decl_file("C:\ti\ccsv7\ccs_base\arm\include\msp432p401r.h")
    1474                            .dwattr $C$DW$83, DW_AT_decl_line(0x35c)
    1475                            .dwattr $C$DW$83, DW_AT_decl_column(0x11)
    1476                    
    1477                    $C$DW$84        .dwtag  DW_TAG_member
    1478                            .dwattr $C$DW$84, DW_AT_type(*$C$DW$T$40)
    1479                            .dwattr $C$DW$84, DW_AT_name("RESERVED3")
    1480                            .dwattr $C$DW$84, DW_AT_TI_symbol_name("RESERVED3")
    1481                            .dwattr $C$DW$84, DW_AT_data_member_location[DW_OP_plus_uconst 0x44]
    1482                            .dwattr $C$DW$84, DW_AT_accessibility(DW_ACCESS_public)
    1483                            .dwattr $C$DW$84, DW_AT_decl_file("C:\ti\ccsv7\ccs_base\arm\include\msp432p401r.h")
    1484                            .dwattr $C$DW$84, DW_AT_decl_line(0x35d)
    1485                            .dwattr $C$DW$84, DW_AT_decl_column(0x11)
    1486                    
    1487                    $C$DW$85        .dwtag  DW_TAG_member
    1488                            .dwattr $C$DW$85, DW_AT_type(*$C$DW$T$20)
    1489                            .dwattr $C$DW$85, DW_AT_name("PRG_CTLSTAT")
    1490                            .dwattr $C$DW$85, DW_AT_TI_symbol_name("PRG_CTLSTAT")
    1491                            .dwattr $C$DW$85, DW_AT_data_member_location[DW_OP_plus_uconst 0x50]
    1492                            .dwattr $C$DW$85, DW_AT_accessibility(DW_ACCESS_public)
    1493                            .dwattr $C$DW$85, DW_AT_decl_file("C:\ti\ccsv7\ccs_base\arm\include\msp432p401r.h")
    1494                            .dwattr $C$DW$85, DW_AT_decl_line(0x35e)
    1495                            .dwattr $C$DW$85, DW_AT_decl_column(0x11)
    1496                    
    1497                    $C$DW$86        .dwtag  DW_TAG_member
    1498                            .dwattr $C$DW$86, DW_AT_type(*$C$DW$T$20)
    1499                            .dwattr $C$DW$86, DW_AT_name("PRGBRST_CTLSTAT")
    1500                            .dwattr $C$DW$86, DW_AT_TI_symbol_name("PRGBRST_CTLSTAT")
    1501                            .dwattr $C$DW$86, DW_AT_data_member_location[DW_OP_plus_uconst 0x54]
    1502                            .dwattr $C$DW$86, DW_AT_accessibility(DW_ACCESS_public)
    1503                            .dwattr $C$DW$86, DW_AT_decl_file("C:\ti\ccsv7\ccs_base\arm\include\msp432p401r.h")
    1504                            .dwattr $C$DW$86, DW_AT_decl_line(0x35f)
    1505                            .dwattr $C$DW$86, DW_AT_decl_column(0x11)
    1506                    
    1507                    $C$DW$87        .dwtag  DW_TAG_member
    1508                            .dwattr $C$DW$87, DW_AT_type(*$C$DW$T$20)
    1509                            .dwattr $C$DW$87, DW_AT_name("PRGBRST_STARTADDR")
    1510                            .dwattr $C$DW$87, DW_AT_TI_symbol_name("PRGBRST_STARTADDR")
    1511                            .dwattr $C$DW$87, DW_AT_data_member_location[DW_OP_plus_uconst 0x58]
    1512                            .dwattr $C$DW$87, DW_AT_accessibility(DW_ACCESS_public)
    1513                            .dwattr $C$DW$87, DW_AT_decl_file("C:\ti\ccsv7\ccs_base\arm\include\msp432p401r.h")
    1514                            .dwattr $C$DW$87, DW_AT_decl_line(0x360)
    1515                            .dwattr $C$DW$87, DW_AT_decl_column(0x11)
TI ARM Assembler PC v16.9.6 Fri Mar 20 15:43:33 2026

Tools Copyright (c) 1996-2017 Texas Instruments Incorporated
Clock.asm                                                            PAGE   29

    1516                    
    1517                    $C$DW$88        .dwtag  DW_TAG_member
    1518                            .dwattr $C$DW$88, DW_AT_type(*$C$DW$T$19)
    1519                            .dwattr $C$DW$88, DW_AT_name("RESERVED4")
    1520                            .dwattr $C$DW$88, DW_AT_TI_symbol_name("RESERVED4")
    1521                            .dwattr $C$DW$88, DW_AT_data_member_location[DW_OP_plus_uconst 0x5c]
    1522                            .dwattr $C$DW$88, DW_AT_accessibility(DW_ACCESS_public)
    1523                            .dwattr $C$DW$88, DW_AT_decl_file("C:\ti\ccsv7\ccs_base\arm\include\msp432p401r.h")
    1524                            .dwattr $C$DW$88, DW_AT_decl_line(0x361)
    1525                            .dwattr $C$DW$88, DW_AT_decl_column(0x11)
    1526                    
    1527                    $C$DW$89        .dwtag  DW_TAG_member
    1528                            .dwattr $C$DW$89, DW_AT_type(*$C$DW$T$20)
    1529                            .dwattr $C$DW$89, DW_AT_name("PRGBRST_DATA0_0")
    1530                            .dwattr $C$DW$89, DW_AT_TI_symbol_name("PRGBRST_DATA0_0")
    1531                            .dwattr $C$DW$89, DW_AT_data_member_location[DW_OP_plus_uconst 0x60]
    1532                            .dwattr $C$DW$89, DW_AT_accessibility(DW_ACCESS_public)
    1533                            .dwattr $C$DW$89, DW_AT_decl_file("C:\ti\ccsv7\ccs_base\arm\include\msp432p401r.h")
    1534                            .dwattr $C$DW$89, DW_AT_decl_line(0x362)
    1535                            .dwattr $C$DW$89, DW_AT_decl_column(0x11)
    1536                    
    1537                    $C$DW$90        .dwtag  DW_TAG_member
    1538                            .dwattr $C$DW$90, DW_AT_type(*$C$DW$T$20)
    1539                            .dwattr $C$DW$90, DW_AT_name("PRGBRST_DATA0_1")
    1540                            .dwattr $C$DW$90, DW_AT_TI_symbol_name("PRGBRST_DATA0_1")
    1541                            .dwattr $C$DW$90, DW_AT_data_member_location[DW_OP_plus_uconst 0x64]
    1542                            .dwattr $C$DW$90, DW_AT_accessibility(DW_ACCESS_public)
    1543                            .dwattr $C$DW$90, DW_AT_decl_file("C:\ti\ccsv7\ccs_base\arm\include\msp432p401r.h")
    1544                            .dwattr $C$DW$90, DW_AT_decl_line(0x363)
    1545                            .dwattr $C$DW$90, DW_AT_decl_column(0x11)
    1546                    
    1547                    $C$DW$91        .dwtag  DW_TAG_member
    1548                            .dwattr $C$DW$91, DW_AT_type(*$C$DW$T$20)
    1549                            .dwattr $C$DW$91, DW_AT_name("PRGBRST_DATA0_2")
    1550                            .dwattr $C$DW$91, DW_AT_TI_symbol_name("PRGBRST_DATA0_2")
    1551                            .dwattr $C$DW$91, DW_AT_data_member_location[DW_OP_plus_uconst 0x68]
    1552                            .dwattr $C$DW$91, DW_AT_accessibility(DW_ACCESS_public)
    1553                            .dwattr $C$DW$91, DW_AT_decl_file("C:\ti\ccsv7\ccs_base\arm\include\msp432p401r.h")
    1554                            .dwattr $C$DW$91, DW_AT_decl_line(0x364)
    1555                            .dwattr $C$DW$91, DW_AT_decl_column(0x11)
    1556                    
    1557                    $C$DW$92        .dwtag  DW_TAG_member
    1558                            .dwattr $C$DW$92, DW_AT_type(*$C$DW$T$20)
    1559                            .dwattr $C$DW$92, DW_AT_name("PRGBRST_DATA0_3")
    1560                            .dwattr $C$DW$92, DW_AT_TI_symbol_name("PRGBRST_DATA0_3")
    1561                            .dwattr $C$DW$92, DW_AT_data_member_location[DW_OP_plus_uconst 0x6c]
    1562                            .dwattr $C$DW$92, DW_AT_accessibility(DW_ACCESS_public)
    1563                            .dwattr $C$DW$92, DW_AT_decl_file("C:\ti\ccsv7\ccs_base\arm\include\msp432p401r.h")
    1564                            .dwattr $C$DW$92, DW_AT_decl_line(0x365)
    1565                            .dwattr $C$DW$92, DW_AT_decl_column(0x11)
    1566                    
    1567                    $C$DW$93        .dwtag  DW_TAG_member
    1568                            .dwattr $C$DW$93, DW_AT_type(*$C$DW$T$20)
    1569                            .dwattr $C$DW$93, DW_AT_name("PRGBRST_DATA1_0")
    1570                            .dwattr $C$DW$93, DW_AT_TI_symbol_name("PRGBRST_DATA1_0")
TI ARM Assembler PC v16.9.6 Fri Mar 20 15:43:33 2026

Tools Copyright (c) 1996-2017 Texas Instruments Incorporated
Clock.asm                                                            PAGE   30

    1571                            .dwattr $C$DW$93, DW_AT_data_member_location[DW_OP_plus_uconst 0x70]
    1572                            .dwattr $C$DW$93, DW_AT_accessibility(DW_ACCESS_public)
    1573                            .dwattr $C$DW$93, DW_AT_decl_file("C:\ti\ccsv7\ccs_base\arm\include\msp432p401r.h")
    1574                            .dwattr $C$DW$93, DW_AT_decl_line(0x366)
    1575                            .dwattr $C$DW$93, DW_AT_decl_column(0x11)
    1576                    
    1577                    $C$DW$94        .dwtag  DW_TAG_member
    1578                            .dwattr $C$DW$94, DW_AT_type(*$C$DW$T$20)
    1579                            .dwattr $C$DW$94, DW_AT_name("PRGBRST_DATA1_1")
    1580                            .dwattr $C$DW$94, DW_AT_TI_symbol_name("PRGBRST_DATA1_1")
    1581                            .dwattr $C$DW$94, DW_AT_data_member_location[DW_OP_plus_uconst 0x74]
    1582                            .dwattr $C$DW$94, DW_AT_accessibility(DW_ACCESS_public)
    1583                            .dwattr $C$DW$94, DW_AT_decl_file("C:\ti\ccsv7\ccs_base\arm\include\msp432p401r.h")
    1584                            .dwattr $C$DW$94, DW_AT_decl_line(0x367)
    1585                            .dwattr $C$DW$94, DW_AT_decl_column(0x11)
    1586                    
    1587                    $C$DW$95        .dwtag  DW_TAG_member
    1588                            .dwattr $C$DW$95, DW_AT_type(*$C$DW$T$20)
    1589                            .dwattr $C$DW$95, DW_AT_name("PRGBRST_DATA1_2")
    1590                            .dwattr $C$DW$95, DW_AT_TI_symbol_name("PRGBRST_DATA1_2")
    1591                            .dwattr $C$DW$95, DW_AT_data_member_location[DW_OP_plus_uconst 0x78]
    1592                            .dwattr $C$DW$95, DW_AT_accessibility(DW_ACCESS_public)
    1593                            .dwattr $C$DW$95, DW_AT_decl_file("C:\ti\ccsv7\ccs_base\arm\include\msp432p401r.h")
    1594                            .dwattr $C$DW$95, DW_AT_decl_line(0x368)
    1595                            .dwattr $C$DW$95, DW_AT_decl_column(0x11)
    1596                    
    1597                    $C$DW$96        .dwtag  DW_TAG_member
    1598                            .dwattr $C$DW$96, DW_AT_type(*$C$DW$T$20)
    1599                            .dwattr $C$DW$96, DW_AT_name("PRGBRST_DATA1_3")
    1600                            .dwattr $C$DW$96, DW_AT_TI_symbol_name("PRGBRST_DATA1_3")
    1601                            .dwattr $C$DW$96, DW_AT_data_member_location[DW_OP_plus_uconst 0x7c]
    1602                            .dwattr $C$DW$96, DW_AT_accessibility(DW_ACCESS_public)
    1603                            .dwattr $C$DW$96, DW_AT_decl_file("C:\ti\ccsv7\ccs_base\arm\include\msp432p401r.h")
    1604                            .dwattr $C$DW$96, DW_AT_decl_line(0x369)
    1605                            .dwattr $C$DW$96, DW_AT_decl_column(0x11)
    1606                    
    1607                    $C$DW$97        .dwtag  DW_TAG_member
    1608                            .dwattr $C$DW$97, DW_AT_type(*$C$DW$T$20)
    1609                            .dwattr $C$DW$97, DW_AT_name("PRGBRST_DATA2_0")
    1610                            .dwattr $C$DW$97, DW_AT_TI_symbol_name("PRGBRST_DATA2_0")
    1611                            .dwattr $C$DW$97, DW_AT_data_member_location[DW_OP_plus_uconst 0x80]
    1612                            .dwattr $C$DW$97, DW_AT_accessibility(DW_ACCESS_public)
    1613                            .dwattr $C$DW$97, DW_AT_decl_file("C:\ti\ccsv7\ccs_base\arm\include\msp432p401r.h")
    1614                            .dwattr $C$DW$97, DW_AT_decl_line(0x36a)
    1615                            .dwattr $C$DW$97, DW_AT_decl_column(0x11)
    1616                    
    1617                    $C$DW$98        .dwtag  DW_TAG_member
    1618                            .dwattr $C$DW$98, DW_AT_type(*$C$DW$T$20)
    1619                            .dwattr $C$DW$98, DW_AT_name("PRGBRST_DATA2_1")
    1620                            .dwattr $C$DW$98, DW_AT_TI_symbol_name("PRGBRST_DATA2_1")
    1621                            .dwattr $C$DW$98, DW_AT_data_member_location[DW_OP_plus_uconst 0x84]
    1622                            .dwattr $C$DW$98, DW_AT_accessibility(DW_ACCESS_public)
    1623                            .dwattr $C$DW$98, DW_AT_decl_file("C:\ti\ccsv7\ccs_base\arm\include\msp432p401r.h")
    1624                            .dwattr $C$DW$98, DW_AT_decl_line(0x36b)
    1625                            .dwattr $C$DW$98, DW_AT_decl_column(0x11)
TI ARM Assembler PC v16.9.6 Fri Mar 20 15:43:33 2026

Tools Copyright (c) 1996-2017 Texas Instruments Incorporated
Clock.asm                                                            PAGE   31

    1626                    
    1627                    $C$DW$99        .dwtag  DW_TAG_member
    1628                            .dwattr $C$DW$99, DW_AT_type(*$C$DW$T$20)
    1629                            .dwattr $C$DW$99, DW_AT_name("PRGBRST_DATA2_2")
    1630                            .dwattr $C$DW$99, DW_AT_TI_symbol_name("PRGBRST_DATA2_2")
    1631                            .dwattr $C$DW$99, DW_AT_data_member_location[DW_OP_plus_uconst 0x88]
    1632                            .dwattr $C$DW$99, DW_AT_accessibility(DW_ACCESS_public)
    1633                            .dwattr $C$DW$99, DW_AT_decl_file("C:\ti\ccsv7\ccs_base\arm\include\msp432p401r.h")
    1634                            .dwattr $C$DW$99, DW_AT_decl_line(0x36c)
    1635                            .dwattr $C$DW$99, DW_AT_decl_column(0x11)
    1636                    
    1637                    $C$DW$100       .dwtag  DW_TAG_member
    1638                            .dwattr $C$DW$100, DW_AT_type(*$C$DW$T$20)
    1639                            .dwattr $C$DW$100, DW_AT_name("PRGBRST_DATA2_3")
    1640                            .dwattr $C$DW$100, DW_AT_TI_symbol_name("PRGBRST_DATA2_3")
    1641                            .dwattr $C$DW$100, DW_AT_data_member_location[DW_OP_plus_uconst 0x8c]
    1642                            .dwattr $C$DW$100, DW_AT_accessibility(DW_ACCESS_public)
    1643                            .dwattr $C$DW$100, DW_AT_decl_file("C:\ti\ccsv7\ccs_base\arm\include\msp432p401r.h")
    1644                            .dwattr $C$DW$100, DW_AT_decl_line(0x36d)
    1645                            .dwattr $C$DW$100, DW_AT_decl_column(0x11)
    1646                    
    1647                    $C$DW$101       .dwtag  DW_TAG_member
    1648                            .dwattr $C$DW$101, DW_AT_type(*$C$DW$T$20)
    1649                            .dwattr $C$DW$101, DW_AT_name("PRGBRST_DATA3_0")
    1650                            .dwattr $C$DW$101, DW_AT_TI_symbol_name("PRGBRST_DATA3_0")
    1651                            .dwattr $C$DW$101, DW_AT_data_member_location[DW_OP_plus_uconst 0x90]
    1652                            .dwattr $C$DW$101, DW_AT_accessibility(DW_ACCESS_public)
    1653                            .dwattr $C$DW$101, DW_AT_decl_file("C:\ti\ccsv7\ccs_base\arm\include\msp432p401r.h")
    1654                            .dwattr $C$DW$101, DW_AT_decl_line(0x36e)
    1655                            .dwattr $C$DW$101, DW_AT_decl_column(0x11)
    1656                    
    1657                    $C$DW$102       .dwtag  DW_TAG_member
    1658                            .dwattr $C$DW$102, DW_AT_type(*$C$DW$T$20)
    1659                            .dwattr $C$DW$102, DW_AT_name("PRGBRST_DATA3_1")
    1660                            .dwattr $C$DW$102, DW_AT_TI_symbol_name("PRGBRST_DATA3_1")
    1661                            .dwattr $C$DW$102, DW_AT_data_member_location[DW_OP_plus_uconst 0x94]
    1662                            .dwattr $C$DW$102, DW_AT_accessibility(DW_ACCESS_public)
    1663                            .dwattr $C$DW$102, DW_AT_decl_file("C:\ti\ccsv7\ccs_base\arm\include\msp432p401r.h")
    1664                            .dwattr $C$DW$102, DW_AT_decl_line(0x36f)
    1665                            .dwattr $C$DW$102, DW_AT_decl_column(0x11)
    1666                    
    1667                    $C$DW$103       .dwtag  DW_TAG_member
    1668                            .dwattr $C$DW$103, DW_AT_type(*$C$DW$T$20)
    1669                            .dwattr $C$DW$103, DW_AT_name("PRGBRST_DATA3_2")
    1670                            .dwattr $C$DW$103, DW_AT_TI_symbol_name("PRGBRST_DATA3_2")
    1671                            .dwattr $C$DW$103, DW_AT_data_member_location[DW_OP_plus_uconst 0x98]
    1672                            .dwattr $C$DW$103, DW_AT_accessibility(DW_ACCESS_public)
    1673                            .dwattr $C$DW$103, DW_AT_decl_file("C:\ti\ccsv7\ccs_base\arm\include\msp432p401r.h")
    1674                            .dwattr $C$DW$103, DW_AT_decl_line(0x370)
    1675                            .dwattr $C$DW$103, DW_AT_decl_column(0x11)
    1676                    
    1677                    $C$DW$104       .dwtag  DW_TAG_member
    1678                            .dwattr $C$DW$104, DW_AT_type(*$C$DW$T$20)
    1679                            .dwattr $C$DW$104, DW_AT_name("PRGBRST_DATA3_3")
    1680                            .dwattr $C$DW$104, DW_AT_TI_symbol_name("PRGBRST_DATA3_3")
TI ARM Assembler PC v16.9.6 Fri Mar 20 15:43:33 2026

Tools Copyright (c) 1996-2017 Texas Instruments Incorporated
Clock.asm                                                            PAGE   32

    1681                            .dwattr $C$DW$104, DW_AT_data_member_location[DW_OP_plus_uconst 0x9c]
    1682                            .dwattr $C$DW$104, DW_AT_accessibility(DW_ACCESS_public)
    1683                            .dwattr $C$DW$104, DW_AT_decl_file("C:\ti\ccsv7\ccs_base\arm\include\msp432p401r.h")
    1684                            .dwattr $C$DW$104, DW_AT_decl_line(0x371)
    1685                            .dwattr $C$DW$104, DW_AT_decl_column(0x11)
    1686                    
    1687                    $C$DW$105       .dwtag  DW_TAG_member
    1688                            .dwattr $C$DW$105, DW_AT_type(*$C$DW$T$20)
    1689                            .dwattr $C$DW$105, DW_AT_name("ERASE_CTLSTAT")
    1690                            .dwattr $C$DW$105, DW_AT_TI_symbol_name("ERASE_CTLSTAT")
    1691                            .dwattr $C$DW$105, DW_AT_data_member_location[DW_OP_plus_uconst 0xa0]
    1692                            .dwattr $C$DW$105, DW_AT_accessibility(DW_ACCESS_public)
    1693                            .dwattr $C$DW$105, DW_AT_decl_file("C:\ti\ccsv7\ccs_base\arm\include\msp432p401r.h")
    1694                            .dwattr $C$DW$105, DW_AT_decl_line(0x372)
    1695                            .dwattr $C$DW$105, DW_AT_decl_column(0x11)
    1696                    
    1697                    $C$DW$106       .dwtag  DW_TAG_member
    1698                            .dwattr $C$DW$106, DW_AT_type(*$C$DW$T$20)
    1699                            .dwattr $C$DW$106, DW_AT_name("ERASE_SECTADDR")
    1700                            .dwattr $C$DW$106, DW_AT_TI_symbol_name("ERASE_SECTADDR")
    1701                            .dwattr $C$DW$106, DW_AT_data_member_location[DW_OP_plus_uconst 0xa4]
    1702                            .dwattr $C$DW$106, DW_AT_accessibility(DW_ACCESS_public)
    1703                            .dwattr $C$DW$106, DW_AT_decl_file("C:\ti\ccsv7\ccs_base\arm\include\msp432p401r.h")
    1704                            .dwattr $C$DW$106, DW_AT_decl_line(0x373)
    1705                            .dwattr $C$DW$106, DW_AT_decl_column(0x11)
    1706                    
    1707                    $C$DW$107       .dwtag  DW_TAG_member
    1708                            .dwattr $C$DW$107, DW_AT_type(*$C$DW$T$38)
    1709                            .dwattr $C$DW$107, DW_AT_name("RESERVED5")
    1710                            .dwattr $C$DW$107, DW_AT_TI_symbol_name("RESERVED5")
    1711                            .dwattr $C$DW$107, DW_AT_data_member_location[DW_OP_plus_uconst 0xa8]
    1712                            .dwattr $C$DW$107, DW_AT_accessibility(DW_ACCESS_public)
    1713                            .dwattr $C$DW$107, DW_AT_decl_file("C:\ti\ccsv7\ccs_base\arm\include\msp432p401r.h")
    1714                            .dwattr $C$DW$107, DW_AT_decl_line(0x374)
    1715                            .dwattr $C$DW$107, DW_AT_decl_column(0x11)
    1716                    
    1717                    $C$DW$108       .dwtag  DW_TAG_member
    1718                            .dwattr $C$DW$108, DW_AT_type(*$C$DW$T$20)
    1719                            .dwattr $C$DW$108, DW_AT_name("BANK0_INFO_WEPROT")
    1720                            .dwattr $C$DW$108, DW_AT_TI_symbol_name("BANK0_INFO_WEPROT")
    1721                            .dwattr $C$DW$108, DW_AT_data_member_location[DW_OP_plus_uconst 0xb0]
    1722                            .dwattr $C$DW$108, DW_AT_accessibility(DW_ACCESS_public)
    1723                            .dwattr $C$DW$108, DW_AT_decl_file("C:\ti\ccsv7\ccs_base\arm\include\msp432p401r.h")
    1724                            .dwattr $C$DW$108, DW_AT_decl_line(0x375)
    1725                            .dwattr $C$DW$108, DW_AT_decl_column(0x11)
    1726                    
    1727                    $C$DW$109       .dwtag  DW_TAG_member
    1728                            .dwattr $C$DW$109, DW_AT_type(*$C$DW$T$20)
    1729                            .dwattr $C$DW$109, DW_AT_name("BANK0_MAIN_WEPROT")
    1730                            .dwattr $C$DW$109, DW_AT_TI_symbol_name("BANK0_MAIN_WEPROT")
    1731                            .dwattr $C$DW$109, DW_AT_data_member_location[DW_OP_plus_uconst 0xb4]
    1732                            .dwattr $C$DW$109, DW_AT_accessibility(DW_ACCESS_public)
    1733                            .dwattr $C$DW$109, DW_AT_decl_file("C:\ti\ccsv7\ccs_base\arm\include\msp432p401r.h")
    1734                            .dwattr $C$DW$109, DW_AT_decl_line(0x376)
    1735                            .dwattr $C$DW$109, DW_AT_decl_column(0x11)
TI ARM Assembler PC v16.9.6 Fri Mar 20 15:43:33 2026

Tools Copyright (c) 1996-2017 Texas Instruments Incorporated
Clock.asm                                                            PAGE   33

    1736                    
    1737                    $C$DW$110       .dwtag  DW_TAG_member
    1738                            .dwattr $C$DW$110, DW_AT_type(*$C$DW$T$38)
    1739                            .dwattr $C$DW$110, DW_AT_name("RESERVED6")
    1740                            .dwattr $C$DW$110, DW_AT_TI_symbol_name("RESERVED6")
    1741                            .dwattr $C$DW$110, DW_AT_data_member_location[DW_OP_plus_uconst 0xb8]
    1742                            .dwattr $C$DW$110, DW_AT_accessibility(DW_ACCESS_public)
    1743                            .dwattr $C$DW$110, DW_AT_decl_file("C:\ti\ccsv7\ccs_base\arm\include\msp432p401r.h")
    1744                            .dwattr $C$DW$110, DW_AT_decl_line(0x377)
    1745                            .dwattr $C$DW$110, DW_AT_decl_column(0x11)
    1746                    
    1747                    $C$DW$111       .dwtag  DW_TAG_member
    1748                            .dwattr $C$DW$111, DW_AT_type(*$C$DW$T$20)
    1749                            .dwattr $C$DW$111, DW_AT_name("BANK1_INFO_WEPROT")
    1750                            .dwattr $C$DW$111, DW_AT_TI_symbol_name("BANK1_INFO_WEPROT")
    1751                            .dwattr $C$DW$111, DW_AT_data_member_location[DW_OP_plus_uconst 0xc0]
    1752                            .dwattr $C$DW$111, DW_AT_accessibility(DW_ACCESS_public)
    1753                            .dwattr $C$DW$111, DW_AT_decl_file("C:\ti\ccsv7\ccs_base\arm\include\msp432p401r.h")
    1754                            .dwattr $C$DW$111, DW_AT_decl_line(0x378)
    1755                            .dwattr $C$DW$111, DW_AT_decl_column(0x11)
    1756                    
    1757                    $C$DW$112       .dwtag  DW_TAG_member
    1758                            .dwattr $C$DW$112, DW_AT_type(*$C$DW$T$20)
    1759                            .dwattr $C$DW$112, DW_AT_name("BANK1_MAIN_WEPROT")
    1760                            .dwattr $C$DW$112, DW_AT_TI_symbol_name("BANK1_MAIN_WEPROT")
    1761                            .dwattr $C$DW$112, DW_AT_data_member_location[DW_OP_plus_uconst 0xc4]
    1762                            .dwattr $C$DW$112, DW_AT_accessibility(DW_ACCESS_public)
    1763                            .dwattr $C$DW$112, DW_AT_decl_file("C:\ti\ccsv7\ccs_base\arm\include\msp432p401r.h")
    1764                            .dwattr $C$DW$112, DW_AT_decl_line(0x379)
    1765                            .dwattr $C$DW$112, DW_AT_decl_column(0x11)
    1766                    
    1767                    $C$DW$113       .dwtag  DW_TAG_member
    1768                            .dwattr $C$DW$113, DW_AT_type(*$C$DW$T$38)
    1769                            .dwattr $C$DW$113, DW_AT_name("RESERVED7")
    1770                            .dwattr $C$DW$113, DW_AT_TI_symbol_name("RESERVED7")
    1771                            .dwattr $C$DW$113, DW_AT_data_member_location[DW_OP_plus_uconst 0xc8]
    1772                            .dwattr $C$DW$113, DW_AT_accessibility(DW_ACCESS_public)
    1773                            .dwattr $C$DW$113, DW_AT_decl_file("C:\ti\ccsv7\ccs_base\arm\include\msp432p401r.h")
    1774                            .dwattr $C$DW$113, DW_AT_decl_line(0x37a)
    1775                            .dwattr $C$DW$113, DW_AT_decl_column(0x11)
    1776                    
    1777                    $C$DW$114       .dwtag  DW_TAG_member
    1778                            .dwattr $C$DW$114, DW_AT_type(*$C$DW$T$20)
    1779                            .dwattr $C$DW$114, DW_AT_name("BMRK_CTLSTAT")
    1780                            .dwattr $C$DW$114, DW_AT_TI_symbol_name("BMRK_CTLSTAT")
    1781                            .dwattr $C$DW$114, DW_AT_data_member_location[DW_OP_plus_uconst 0xd0]
    1782                            .dwattr $C$DW$114, DW_AT_accessibility(DW_ACCESS_public)
    1783                            .dwattr $C$DW$114, DW_AT_decl_file("C:\ti\ccsv7\ccs_base\arm\include\msp432p401r.h")
    1784                            .dwattr $C$DW$114, DW_AT_decl_line(0x37b)
    1785                            .dwattr $C$DW$114, DW_AT_decl_column(0x11)
    1786                    
    1787                    $C$DW$115       .dwtag  DW_TAG_member
    1788                            .dwattr $C$DW$115, DW_AT_type(*$C$DW$T$20)
    1789                            .dwattr $C$DW$115, DW_AT_name("BMRK_IFETCH")
    1790                            .dwattr $C$DW$115, DW_AT_TI_symbol_name("BMRK_IFETCH")
TI ARM Assembler PC v16.9.6 Fri Mar 20 15:43:33 2026

Tools Copyright (c) 1996-2017 Texas Instruments Incorporated
Clock.asm                                                            PAGE   34

    1791                            .dwattr $C$DW$115, DW_AT_data_member_location[DW_OP_plus_uconst 0xd4]
    1792                            .dwattr $C$DW$115, DW_AT_accessibility(DW_ACCESS_public)
    1793                            .dwattr $C$DW$115, DW_AT_decl_file("C:\ti\ccsv7\ccs_base\arm\include\msp432p401r.h")
    1794                            .dwattr $C$DW$115, DW_AT_decl_line(0x37c)
    1795                            .dwattr $C$DW$115, DW_AT_decl_column(0x11)
    1796                    
    1797                    $C$DW$116       .dwtag  DW_TAG_member
    1798                            .dwattr $C$DW$116, DW_AT_type(*$C$DW$T$20)
    1799                            .dwattr $C$DW$116, DW_AT_name("BMRK_DREAD")
    1800                            .dwattr $C$DW$116, DW_AT_TI_symbol_name("BMRK_DREAD")
    1801                            .dwattr $C$DW$116, DW_AT_data_member_location[DW_OP_plus_uconst 0xd8]
    1802                            .dwattr $C$DW$116, DW_AT_accessibility(DW_ACCESS_public)
    1803                            .dwattr $C$DW$116, DW_AT_decl_file("C:\ti\ccsv7\ccs_base\arm\include\msp432p401r.h")
    1804                            .dwattr $C$DW$116, DW_AT_decl_line(0x37d)
    1805                            .dwattr $C$DW$116, DW_AT_decl_column(0x11)
    1806                    
    1807                    $C$DW$117       .dwtag  DW_TAG_member
    1808                            .dwattr $C$DW$117, DW_AT_type(*$C$DW$T$20)
    1809                            .dwattr $C$DW$117, DW_AT_name("BMRK_CMP")
    1810                            .dwattr $C$DW$117, DW_AT_TI_symbol_name("BMRK_CMP")
    1811                            .dwattr $C$DW$117, DW_AT_data_member_location[DW_OP_plus_uconst 0xdc]
    1812                            .dwattr $C$DW$117, DW_AT_accessibility(DW_ACCESS_public)
    1813                            .dwattr $C$DW$117, DW_AT_decl_file("C:\ti\ccsv7\ccs_base\arm\include\msp432p401r.h")
    1814                            .dwattr $C$DW$117, DW_AT_decl_line(0x37e)
    1815                            .dwattr $C$DW$117, DW_AT_decl_column(0x11)
    1816                    
    1817                    $C$DW$118       .dwtag  DW_TAG_member
    1818                            .dwattr $C$DW$118, DW_AT_type(*$C$DW$T$41)
    1819                            .dwattr $C$DW$118, DW_AT_name("RESERVED8")
    1820                            .dwattr $C$DW$118, DW_AT_TI_symbol_name("RESERVED8")
    1821                            .dwattr $C$DW$118, DW_AT_data_member_location[DW_OP_plus_uconst 0xe0]
    1822                            .dwattr $C$DW$118, DW_AT_accessibility(DW_ACCESS_public)
    1823                            .dwattr $C$DW$118, DW_AT_decl_file("C:\ti\ccsv7\ccs_base\arm\include\msp432p401r.h")
    1824                            .dwattr $C$DW$118, DW_AT_decl_line(0x37f)
    1825                            .dwattr $C$DW$118, DW_AT_decl_column(0x11)
    1826                    
    1827                    $C$DW$119       .dwtag  DW_TAG_member
    1828                            .dwattr $C$DW$119, DW_AT_type(*$C$DW$T$20)
    1829                            .dwattr $C$DW$119, DW_AT_name("IFG")
    1830                            .dwattr $C$DW$119, DW_AT_TI_symbol_name("IFG")
    1831                            .dwattr $C$DW$119, DW_AT_data_member_location[DW_OP_plus_uconst 0xf0]
    1832                            .dwattr $C$DW$119, DW_AT_accessibility(DW_ACCESS_public)
    1833                            .dwattr $C$DW$119, DW_AT_decl_file("C:\ti\ccsv7\ccs_base\arm\include\msp432p401r.h")
    1834                            .dwattr $C$DW$119, DW_AT_decl_line(0x380)
    1835                            .dwattr $C$DW$119, DW_AT_decl_column(0x11)
    1836                    
    1837                    $C$DW$120       .dwtag  DW_TAG_member
    1838                            .dwattr $C$DW$120, DW_AT_type(*$C$DW$T$20)
    1839                            .dwattr $C$DW$120, DW_AT_name("IE")
    1840                            .dwattr $C$DW$120, DW_AT_TI_symbol_name("IE")
    1841                            .dwattr $C$DW$120, DW_AT_data_member_location[DW_OP_plus_uconst 0xf4]
    1842                            .dwattr $C$DW$120, DW_AT_accessibility(DW_ACCESS_public)
    1843                            .dwattr $C$DW$120, DW_AT_decl_file("C:\ti\ccsv7\ccs_base\arm\include\msp432p401r.h")
    1844                            .dwattr $C$DW$120, DW_AT_decl_line(0x381)
    1845                            .dwattr $C$DW$120, DW_AT_decl_column(0x11)
TI ARM Assembler PC v16.9.6 Fri Mar 20 15:43:33 2026

Tools Copyright (c) 1996-2017 Texas Instruments Incorporated
Clock.asm                                                            PAGE   35

    1846                    
    1847                    $C$DW$121       .dwtag  DW_TAG_member
    1848                            .dwattr $C$DW$121, DW_AT_type(*$C$DW$T$20)
    1849                            .dwattr $C$DW$121, DW_AT_name("CLRIFG")
    1850                            .dwattr $C$DW$121, DW_AT_TI_symbol_name("CLRIFG")
    1851                            .dwattr $C$DW$121, DW_AT_data_member_location[DW_OP_plus_uconst 0xf8]
    1852                            .dwattr $C$DW$121, DW_AT_accessibility(DW_ACCESS_public)
    1853                            .dwattr $C$DW$121, DW_AT_decl_file("C:\ti\ccsv7\ccs_base\arm\include\msp432p401r.h")
    1854                            .dwattr $C$DW$121, DW_AT_decl_line(0x382)
    1855                            .dwattr $C$DW$121, DW_AT_decl_column(0x11)
    1856                    
    1857                    $C$DW$122       .dwtag  DW_TAG_member
    1858                            .dwattr $C$DW$122, DW_AT_type(*$C$DW$T$20)
    1859                            .dwattr $C$DW$122, DW_AT_name("SETIFG")
    1860                            .dwattr $C$DW$122, DW_AT_TI_symbol_name("SETIFG")
    1861                            .dwattr $C$DW$122, DW_AT_data_member_location[DW_OP_plus_uconst 0xfc]
    1862                            .dwattr $C$DW$122, DW_AT_accessibility(DW_ACCESS_public)
    1863                            .dwattr $C$DW$122, DW_AT_decl_file("C:\ti\ccsv7\ccs_base\arm\include\msp432p401r.h")
    1864                            .dwattr $C$DW$122, DW_AT_decl_line(0x383)
    1865                            .dwattr $C$DW$122, DW_AT_decl_column(0x11)
    1866                    
    1867                    $C$DW$123       .dwtag  DW_TAG_member
    1868                            .dwattr $C$DW$123, DW_AT_type(*$C$DW$T$21)
    1869                            .dwattr $C$DW$123, DW_AT_name("READ_TIMCTL")
    1870                            .dwattr $C$DW$123, DW_AT_TI_symbol_name("READ_TIMCTL")
    1871                            .dwattr $C$DW$123, DW_AT_data_member_location[DW_OP_plus_uconst 0x100]
    1872                            .dwattr $C$DW$123, DW_AT_accessibility(DW_ACCESS_public)
    1873                            .dwattr $C$DW$123, DW_AT_decl_file("C:\ti\ccsv7\ccs_base\arm\include\msp432p401r.h")
    1874                            .dwattr $C$DW$123, DW_AT_decl_line(0x384)
    1875                            .dwattr $C$DW$123, DW_AT_decl_column(0x11)
    1876                    
    1877                    $C$DW$124       .dwtag  DW_TAG_member
    1878                            .dwattr $C$DW$124, DW_AT_type(*$C$DW$T$21)
    1879                            .dwattr $C$DW$124, DW_AT_name("READMARGIN_TIMCTL")
    1880                            .dwattr $C$DW$124, DW_AT_TI_symbol_name("READMARGIN_TIMCTL")
    1881                            .dwattr $C$DW$124, DW_AT_data_member_location[DW_OP_plus_uconst 0x104]
    1882                            .dwattr $C$DW$124, DW_AT_accessibility(DW_ACCESS_public)
    1883                            .dwattr $C$DW$124, DW_AT_decl_file("C:\ti\ccsv7\ccs_base\arm\include\msp432p401r.h")
    1884                            .dwattr $C$DW$124, DW_AT_decl_line(0x385)
    1885                            .dwattr $C$DW$124, DW_AT_decl_column(0x11)
    1886                    
    1887                    $C$DW$125       .dwtag  DW_TAG_member
    1888                            .dwattr $C$DW$125, DW_AT_type(*$C$DW$T$21)
    1889                            .dwattr $C$DW$125, DW_AT_name("PRGVER_TIMCTL")
    1890                            .dwattr $C$DW$125, DW_AT_TI_symbol_name("PRGVER_TIMCTL")
    1891                            .dwattr $C$DW$125, DW_AT_data_member_location[DW_OP_plus_uconst 0x108]
    1892                            .dwattr $C$DW$125, DW_AT_accessibility(DW_ACCESS_public)
    1893                            .dwattr $C$DW$125, DW_AT_decl_file("C:\ti\ccsv7\ccs_base\arm\include\msp432p401r.h")
    1894                            .dwattr $C$DW$125, DW_AT_decl_line(0x386)
    1895                            .dwattr $C$DW$125, DW_AT_decl_column(0x11)
    1896                    
    1897                    $C$DW$126       .dwtag  DW_TAG_member
    1898                            .dwattr $C$DW$126, DW_AT_type(*$C$DW$T$21)
    1899                            .dwattr $C$DW$126, DW_AT_name("ERSVER_TIMCTL")
    1900                            .dwattr $C$DW$126, DW_AT_TI_symbol_name("ERSVER_TIMCTL")
TI ARM Assembler PC v16.9.6 Fri Mar 20 15:43:33 2026

Tools Copyright (c) 1996-2017 Texas Instruments Incorporated
Clock.asm                                                            PAGE   36

    1901                            .dwattr $C$DW$126, DW_AT_data_member_location[DW_OP_plus_uconst 0x10c]
    1902                            .dwattr $C$DW$126, DW_AT_accessibility(DW_ACCESS_public)
    1903                            .dwattr $C$DW$126, DW_AT_decl_file("C:\ti\ccsv7\ccs_base\arm\include\msp432p401r.h")
    1904                            .dwattr $C$DW$126, DW_AT_decl_line(0x387)
    1905                            .dwattr $C$DW$126, DW_AT_decl_column(0x11)
    1906                    
    1907                    $C$DW$127       .dwtag  DW_TAG_member
    1908                            .dwattr $C$DW$127, DW_AT_type(*$C$DW$T$21)
    1909                            .dwattr $C$DW$127, DW_AT_name("LKGVER_TIMCTL")
    1910                            .dwattr $C$DW$127, DW_AT_TI_symbol_name("LKGVER_TIMCTL")
    1911                            .dwattr $C$DW$127, DW_AT_data_member_location[DW_OP_plus_uconst 0x110]
    1912                            .dwattr $C$DW$127, DW_AT_accessibility(DW_ACCESS_public)
    1913                            .dwattr $C$DW$127, DW_AT_decl_file("C:\ti\ccsv7\ccs_base\arm\include\msp432p401r.h")
    1914                            .dwattr $C$DW$127, DW_AT_decl_line(0x388)
    1915                            .dwattr $C$DW$127, DW_AT_decl_column(0x11)
    1916                    
    1917                    $C$DW$128       .dwtag  DW_TAG_member
    1918                            .dwattr $C$DW$128, DW_AT_type(*$C$DW$T$21)
    1919                            .dwattr $C$DW$128, DW_AT_name("PROGRAM_TIMCTL")
    1920                            .dwattr $C$DW$128, DW_AT_TI_symbol_name("PROGRAM_TIMCTL")
    1921                            .dwattr $C$DW$128, DW_AT_data_member_location[DW_OP_plus_uconst 0x114]
    1922                            .dwattr $C$DW$128, DW_AT_accessibility(DW_ACCESS_public)
    1923                            .dwattr $C$DW$128, DW_AT_decl_file("C:\ti\ccsv7\ccs_base\arm\include\msp432p401r.h")
    1924                            .dwattr $C$DW$128, DW_AT_decl_line(0x389)
    1925                            .dwattr $C$DW$128, DW_AT_decl_column(0x11)
    1926                    
    1927                    $C$DW$129       .dwtag  DW_TAG_member
    1928                            .dwattr $C$DW$129, DW_AT_type(*$C$DW$T$21)
    1929                            .dwattr $C$DW$129, DW_AT_name("ERASE_TIMCTL")
    1930                            .dwattr $C$DW$129, DW_AT_TI_symbol_name("ERASE_TIMCTL")
    1931                            .dwattr $C$DW$129, DW_AT_data_member_location[DW_OP_plus_uconst 0x118]
    1932                            .dwattr $C$DW$129, DW_AT_accessibility(DW_ACCESS_public)
    1933                            .dwattr $C$DW$129, DW_AT_decl_file("C:\ti\ccsv7\ccs_base\arm\include\msp432p401r.h")
    1934                            .dwattr $C$DW$129, DW_AT_decl_line(0x38a)
    1935                            .dwattr $C$DW$129, DW_AT_decl_column(0x11)
    1936                    
    1937                    $C$DW$130       .dwtag  DW_TAG_member
    1938                            .dwattr $C$DW$130, DW_AT_type(*$C$DW$T$21)
    1939                            .dwattr $C$DW$130, DW_AT_name("MASSERASE_TIMCTL")
    1940                            .dwattr $C$DW$130, DW_AT_TI_symbol_name("MASSERASE_TIMCTL")
    1941                            .dwattr $C$DW$130, DW_AT_data_member_location[DW_OP_plus_uconst 0x11c]
    1942                            .dwattr $C$DW$130, DW_AT_accessibility(DW_ACCESS_public)
    1943                            .dwattr $C$DW$130, DW_AT_decl_file("C:\ti\ccsv7\ccs_base\arm\include\msp432p401r.h")
    1944                            .dwattr $C$DW$130, DW_AT_decl_line(0x38b)
    1945                            .dwattr $C$DW$130, DW_AT_decl_column(0x11)
    1946                    
    1947                    $C$DW$131       .dwtag  DW_TAG_member
    1948                            .dwattr $C$DW$131, DW_AT_type(*$C$DW$T$21)
    1949                            .dwattr $C$DW$131, DW_AT_name("BURSTPRG_TIMCTL")
    1950                            .dwattr $C$DW$131, DW_AT_TI_symbol_name("BURSTPRG_TIMCTL")
    1951                            .dwattr $C$DW$131, DW_AT_data_member_location[DW_OP_plus_uconst 0x120]
    1952                            .dwattr $C$DW$131, DW_AT_accessibility(DW_ACCESS_public)
    1953                            .dwattr $C$DW$131, DW_AT_decl_file("C:\ti\ccsv7\ccs_base\arm\include\msp432p401r.h")
    1954                            .dwattr $C$DW$131, DW_AT_decl_line(0x38c)
    1955                            .dwattr $C$DW$131, DW_AT_decl_column(0x11)
TI ARM Assembler PC v16.9.6 Fri Mar 20 15:43:33 2026

Tools Copyright (c) 1996-2017 Texas Instruments Incorporated
Clock.asm                                                            PAGE   37

    1956                    
    1957                            .dwattr $C$DW$T$42, DW_AT_decl_file("C:\ti\ccsv7\ccs_base\arm\include\msp432p401r.h")
    1958                            .dwattr $C$DW$T$42, DW_AT_decl_line(0x351)
    1959                            .dwattr $C$DW$T$42, DW_AT_decl_column(0x10)
    1960                            .dwendtag $C$DW$T$42
    1961                    
    1962                    $C$DW$T$178     .dwtag  DW_TAG_typedef
    1963                            .dwattr $C$DW$T$178, DW_AT_name("FLCTL_Type")
    1964                            .dwattr $C$DW$T$178, DW_AT_type(*$C$DW$T$42)
    1965                            .dwattr $C$DW$T$178, DW_AT_language(DW_LANG_C)
    1966                            .dwattr $C$DW$T$178, DW_AT_decl_file("C:\ti\ccsv7\ccs_base\arm\include\msp432p401r.h")
    1967                            .dwattr $C$DW$T$178, DW_AT_decl_line(0x38d)
    1968                            .dwattr $C$DW$T$178, DW_AT_decl_column(0x03)
    1969                    
    1970                    
    1971                    $C$DW$T$43      .dwtag  DW_TAG_structure_type
    1972                            .dwattr $C$DW$T$43, DW_AT_byte_size(0x04)
    1973                    $C$DW$132       .dwtag  DW_TAG_member
    1974                            .dwattr $C$DW$132, DW_AT_type(*$C$DW$T$19)
    1975                            .dwattr $C$DW$132, DW_AT_name("_reserved0")
    1976                            .dwattr $C$DW$132, DW_AT_TI_symbol_name("_reserved0")
    1977                            .dwattr $C$DW$132, DW_AT_bit_offset(0x10)
    1978                            .dwattr $C$DW$132, DW_AT_bit_size(0x10)
    1979                            .dwattr $C$DW$132, DW_AT_data_member_location[DW_OP_plus_uconst 0x0]
    1980                            .dwattr $C$DW$132, DW_AT_accessibility(DW_ACCESS_public)
    1981                            .dwattr $C$DW$132, DW_AT_decl_file("C:/ti/ccsv7/ccs_base/arm/include/CMSIS/core_cm4.h")
    1982                            .dwattr $C$DW$132, DW_AT_decl_line(0x105)
    1983                            .dwattr $C$DW$132, DW_AT_decl_column(0x0e)
    1984                    
    1985                    $C$DW$133       .dwtag  DW_TAG_member
    1986                            .dwattr $C$DW$133, DW_AT_type(*$C$DW$T$19)
    1987                            .dwattr $C$DW$133, DW_AT_name("GE")
    1988                            .dwattr $C$DW$133, DW_AT_TI_symbol_name("GE")
    1989                            .dwattr $C$DW$133, DW_AT_bit_offset(0x0c)
    1990                            .dwattr $C$DW$133, DW_AT_bit_size(0x04)
    1991                            .dwattr $C$DW$133, DW_AT_data_member_location[DW_OP_plus_uconst 0x0]
    1992                            .dwattr $C$DW$133, DW_AT_accessibility(DW_ACCESS_public)
    1993                            .dwattr $C$DW$133, DW_AT_decl_file("C:/ti/ccsv7/ccs_base/arm/include/CMSIS/core_cm4.h")
    1994                            .dwattr $C$DW$133, DW_AT_decl_line(0x106)
    1995                            .dwattr $C$DW$133, DW_AT_decl_column(0x0e)
    1996                    
    1997                    $C$DW$134       .dwtag  DW_TAG_member
    1998                            .dwattr $C$DW$134, DW_AT_type(*$C$DW$T$19)
    1999                            .dwattr $C$DW$134, DW_AT_name("_reserved1")
    2000                            .dwattr $C$DW$134, DW_AT_TI_symbol_name("_reserved1")
    2001                            .dwattr $C$DW$134, DW_AT_bit_offset(0x05)
    2002                            .dwattr $C$DW$134, DW_AT_bit_size(0x07)
    2003                            .dwattr $C$DW$134, DW_AT_data_member_location[DW_OP_plus_uconst 0x0]
    2004                            .dwattr $C$DW$134, DW_AT_accessibility(DW_ACCESS_public)
    2005                            .dwattr $C$DW$134, DW_AT_decl_file("C:/ti/ccsv7/ccs_base/arm/include/CMSIS/core_cm4.h")
    2006                            .dwattr $C$DW$134, DW_AT_decl_line(0x107)
    2007                            .dwattr $C$DW$134, DW_AT_decl_column(0x0e)
    2008                    
    2009                    $C$DW$135       .dwtag  DW_TAG_member
    2010                            .dwattr $C$DW$135, DW_AT_type(*$C$DW$T$19)
TI ARM Assembler PC v16.9.6 Fri Mar 20 15:43:33 2026

Tools Copyright (c) 1996-2017 Texas Instruments Incorporated
Clock.asm                                                            PAGE   38

    2011                            .dwattr $C$DW$135, DW_AT_name("Q")
    2012                            .dwattr $C$DW$135, DW_AT_TI_symbol_name("Q")
    2013                            .dwattr $C$DW$135, DW_AT_bit_offset(0x04)
    2014                            .dwattr $C$DW$135, DW_AT_bit_size(0x01)
    2015                            .dwattr $C$DW$135, DW_AT_data_member_location[DW_OP_plus_uconst 0x0]
    2016                            .dwattr $C$DW$135, DW_AT_accessibility(DW_ACCESS_public)
    2017                            .dwattr $C$DW$135, DW_AT_decl_file("C:/ti/ccsv7/ccs_base/arm/include/CMSIS/core_cm4.h")
    2018                            .dwattr $C$DW$135, DW_AT_decl_line(0x108)
    2019                            .dwattr $C$DW$135, DW_AT_decl_column(0x0e)
    2020                    
    2021                    $C$DW$136       .dwtag  DW_TAG_member
    2022                            .dwattr $C$DW$136, DW_AT_type(*$C$DW$T$19)
    2023                            .dwattr $C$DW$136, DW_AT_name("V")
    2024                            .dwattr $C$DW$136, DW_AT_TI_symbol_name("V")
    2025                            .dwattr $C$DW$136, DW_AT_bit_offset(0x03)
    2026                            .dwattr $C$DW$136, DW_AT_bit_size(0x01)
    2027                            .dwattr $C$DW$136, DW_AT_data_member_location[DW_OP_plus_uconst 0x0]
    2028                            .dwattr $C$DW$136, DW_AT_accessibility(DW_ACCESS_public)
    2029                            .dwattr $C$DW$136, DW_AT_decl_file("C:/ti/ccsv7/ccs_base/arm/include/CMSIS/core_cm4.h")
    2030                            .dwattr $C$DW$136, DW_AT_decl_line(0x109)
    2031                            .dwattr $C$DW$136, DW_AT_decl_column(0x0e)
    2032                    
    2033                    $C$DW$137       .dwtag  DW_TAG_member
    2034                            .dwattr $C$DW$137, DW_AT_type(*$C$DW$T$19)
    2035                            .dwattr $C$DW$137, DW_AT_name("C")
    2036                            .dwattr $C$DW$137, DW_AT_TI_symbol_name("C")
    2037                            .dwattr $C$DW$137, DW_AT_bit_offset(0x02)
    2038                            .dwattr $C$DW$137, DW_AT_bit_size(0x01)
    2039                            .dwattr $C$DW$137, DW_AT_data_member_location[DW_OP_plus_uconst 0x0]
    2040                            .dwattr $C$DW$137, DW_AT_accessibility(DW_ACCESS_public)
    2041                            .dwattr $C$DW$137, DW_AT_decl_file("C:/ti/ccsv7/ccs_base/arm/include/CMSIS/core_cm4.h")
    2042                            .dwattr $C$DW$137, DW_AT_decl_line(0x10a)
    2043                            .dwattr $C$DW$137, DW_AT_decl_column(0x0e)
    2044                    
    2045                    $C$DW$138       .dwtag  DW_TAG_member
    2046                            .dwattr $C$DW$138, DW_AT_type(*$C$DW$T$19)
    2047                            .dwattr $C$DW$138, DW_AT_name("Z")
    2048                            .dwattr $C$DW$138, DW_AT_TI_symbol_name("Z")
    2049                            .dwattr $C$DW$138, DW_AT_bit_offset(0x01)
    2050                            .dwattr $C$DW$138, DW_AT_bit_size(0x01)
    2051                            .dwattr $C$DW$138, DW_AT_data_member_location[DW_OP_plus_uconst 0x0]
    2052                            .dwattr $C$DW$138, DW_AT_accessibility(DW_ACCESS_public)
    2053                            .dwattr $C$DW$138, DW_AT_decl_file("C:/ti/ccsv7/ccs_base/arm/include/CMSIS/core_cm4.h")
    2054                            .dwattr $C$DW$138, DW_AT_decl_line(0x10b)
    2055                            .dwattr $C$DW$138, DW_AT_decl_column(0x0e)
    2056                    
    2057                    $C$DW$139       .dwtag  DW_TAG_member
    2058                            .dwattr $C$DW$139, DW_AT_type(*$C$DW$T$19)
    2059                            .dwattr $C$DW$139, DW_AT_name("N")
    2060                            .dwattr $C$DW$139, DW_AT_TI_symbol_name("N")
    2061                            .dwattr $C$DW$139, DW_AT_bit_offset(0x00)
    2062                            .dwattr $C$DW$139, DW_AT_bit_size(0x01)
    2063                            .dwattr $C$DW$139, DW_AT_data_member_location[DW_OP_plus_uconst 0x0]
    2064                            .dwattr $C$DW$139, DW_AT_accessibility(DW_ACCESS_public)
    2065                            .dwattr $C$DW$139, DW_AT_decl_file("C:/ti/ccsv7/ccs_base/arm/include/CMSIS/core_cm4.h")
TI ARM Assembler PC v16.9.6 Fri Mar 20 15:43:33 2026

Tools Copyright (c) 1996-2017 Texas Instruments Incorporated
Clock.asm                                                            PAGE   39

    2066                            .dwattr $C$DW$139, DW_AT_decl_line(0x10c)
    2067                            .dwattr $C$DW$139, DW_AT_decl_column(0x0e)
    2068                    
    2069                            .dwattr $C$DW$T$43, DW_AT_decl_file("C:/ti/ccsv7/ccs_base/arm/include/CMSIS/core_cm4.h")
    2070                            .dwattr $C$DW$T$43, DW_AT_decl_line(0x104)
    2071                            .dwattr $C$DW$T$43, DW_AT_decl_column(0x03)
    2072                            .dwendtag $C$DW$T$43
    2073                    
    2074                    
    2075                    $C$DW$T$44      .dwtag  DW_TAG_structure_type
    2076                            .dwattr $C$DW$T$44, DW_AT_byte_size(0x04)
    2077                    $C$DW$140       .dwtag  DW_TAG_member
    2078                            .dwattr $C$DW$140, DW_AT_type(*$C$DW$T$19)
    2079                            .dwattr $C$DW$140, DW_AT_name("ISR")
    2080                            .dwattr $C$DW$140, DW_AT_TI_symbol_name("ISR")
    2081                            .dwattr $C$DW$140, DW_AT_bit_offset(0x17)
    2082                            .dwattr $C$DW$140, DW_AT_bit_size(0x09)
    2083                            .dwattr $C$DW$140, DW_AT_data_member_location[DW_OP_plus_uconst 0x0]
    2084                            .dwattr $C$DW$140, DW_AT_accessibility(DW_ACCESS_public)
    2085                            .dwattr $C$DW$140, DW_AT_decl_file("C:/ti/ccsv7/ccs_base/arm/include/CMSIS/core_cm4.h")
    2086                            .dwattr $C$DW$140, DW_AT_decl_line(0x12c)
    2087                            .dwattr $C$DW$140, DW_AT_decl_column(0x0e)
    2088                    
    2089                    $C$DW$141       .dwtag  DW_TAG_member
    2090                            .dwattr $C$DW$141, DW_AT_type(*$C$DW$T$19)
    2091                            .dwattr $C$DW$141, DW_AT_name("_reserved0")
    2092                            .dwattr $C$DW$141, DW_AT_TI_symbol_name("_reserved0")
    2093                            .dwattr $C$DW$141, DW_AT_bit_offset(0x00)
    2094                            .dwattr $C$DW$141, DW_AT_bit_size(0x17)
    2095                            .dwattr $C$DW$141, DW_AT_data_member_location[DW_OP_plus_uconst 0x0]
    2096                            .dwattr $C$DW$141, DW_AT_accessibility(DW_ACCESS_public)
    2097                            .dwattr $C$DW$141, DW_AT_decl_file("C:/ti/ccsv7/ccs_base/arm/include/CMSIS/core_cm4.h")
    2098                            .dwattr $C$DW$141, DW_AT_decl_line(0x12d)
    2099                            .dwattr $C$DW$141, DW_AT_decl_column(0x0e)
    2100                    
    2101                            .dwattr $C$DW$T$44, DW_AT_decl_file("C:/ti/ccsv7/ccs_base/arm/include/CMSIS/core_cm4.h")
    2102                            .dwattr $C$DW$T$44, DW_AT_decl_line(0x12b)
    2103                            .dwattr $C$DW$T$44, DW_AT_decl_column(0x03)
    2104                            .dwendtag $C$DW$T$44
    2105                    
    2106                    
    2107                    $C$DW$T$45      .dwtag  DW_TAG_structure_type
    2108                            .dwattr $C$DW$T$45, DW_AT_byte_size(0x04)
    2109                    $C$DW$142       .dwtag  DW_TAG_member
    2110                            .dwattr $C$DW$142, DW_AT_type(*$C$DW$T$19)
    2111                            .dwattr $C$DW$142, DW_AT_name("ISR")
    2112                            .dwattr $C$DW$142, DW_AT_TI_symbol_name("ISR")
    2113                            .dwattr $C$DW$142, DW_AT_bit_offset(0x17)
    2114                            .dwattr $C$DW$142, DW_AT_bit_size(0x09)
    2115                            .dwattr $C$DW$142, DW_AT_data_member_location[DW_OP_plus_uconst 0x0]
    2116                            .dwattr $C$DW$142, DW_AT_accessibility(DW_ACCESS_public)
    2117                            .dwattr $C$DW$142, DW_AT_decl_file("C:/ti/ccsv7/ccs_base/arm/include/CMSIS/core_cm4.h")
    2118                            .dwattr $C$DW$142, DW_AT_decl_line(0x13e)
    2119                            .dwattr $C$DW$142, DW_AT_decl_column(0x0e)
    2120                    
TI ARM Assembler PC v16.9.6 Fri Mar 20 15:43:33 2026

Tools Copyright (c) 1996-2017 Texas Instruments Incorporated
Clock.asm                                                            PAGE   40

    2121                    $C$DW$143       .dwtag  DW_TAG_member
    2122                            .dwattr $C$DW$143, DW_AT_type(*$C$DW$T$19)
    2123                            .dwattr $C$DW$143, DW_AT_name("_reserved0")
    2124                            .dwattr $C$DW$143, DW_AT_TI_symbol_name("_reserved0")
    2125                            .dwattr $C$DW$143, DW_AT_bit_offset(0x16)
    2126                            .dwattr $C$DW$143, DW_AT_bit_size(0x01)
    2127                            .dwattr $C$DW$143, DW_AT_data_member_location[DW_OP_plus_uconst 0x0]
    2128                            .dwattr $C$DW$143, DW_AT_accessibility(DW_ACCESS_public)
    2129                            .dwattr $C$DW$143, DW_AT_decl_file("C:/ti/ccsv7/ccs_base/arm/include/CMSIS/core_cm4.h")
    2130                            .dwattr $C$DW$143, DW_AT_decl_line(0x13f)
    2131                            .dwattr $C$DW$143, DW_AT_decl_column(0x0e)
    2132                    
    2133                    $C$DW$144       .dwtag  DW_TAG_member
    2134                            .dwattr $C$DW$144, DW_AT_type(*$C$DW$T$19)
    2135                            .dwattr $C$DW$144, DW_AT_name("ICI_IT_1")
    2136                            .dwattr $C$DW$144, DW_AT_TI_symbol_name("ICI_IT_1")
    2137                            .dwattr $C$DW$144, DW_AT_bit_offset(0x10)
    2138                            .dwattr $C$DW$144, DW_AT_bit_size(0x06)
    2139                            .dwattr $C$DW$144, DW_AT_data_member_location[DW_OP_plus_uconst 0x0]
    2140                            .dwattr $C$DW$144, DW_AT_accessibility(DW_ACCESS_public)
    2141                            .dwattr $C$DW$144, DW_AT_decl_file("C:/ti/ccsv7/ccs_base/arm/include/CMSIS/core_cm4.h")
    2142                            .dwattr $C$DW$144, DW_AT_decl_line(0x140)
    2143                            .dwattr $C$DW$144, DW_AT_decl_column(0x0e)
    2144                    
    2145                    $C$DW$145       .dwtag  DW_TAG_member
    2146                            .dwattr $C$DW$145, DW_AT_type(*$C$DW$T$19)
    2147                            .dwattr $C$DW$145, DW_AT_name("GE")
    2148                            .dwattr $C$DW$145, DW_AT_TI_symbol_name("GE")
    2149                            .dwattr $C$DW$145, DW_AT_bit_offset(0x0c)
    2150                            .dwattr $C$DW$145, DW_AT_bit_size(0x04)
    2151                            .dwattr $C$DW$145, DW_AT_data_member_location[DW_OP_plus_uconst 0x0]
    2152                            .dwattr $C$DW$145, DW_AT_accessibility(DW_ACCESS_public)
    2153                            .dwattr $C$DW$145, DW_AT_decl_file("C:/ti/ccsv7/ccs_base/arm/include/CMSIS/core_cm4.h")
    2154                            .dwattr $C$DW$145, DW_AT_decl_line(0x141)
    2155                            .dwattr $C$DW$145, DW_AT_decl_column(0x0e)
    2156                    
    2157                    $C$DW$146       .dwtag  DW_TAG_member
    2158                            .dwattr $C$DW$146, DW_AT_type(*$C$DW$T$19)
    2159                            .dwattr $C$DW$146, DW_AT_name("_reserved1")
    2160                            .dwattr $C$DW$146, DW_AT_TI_symbol_name("_reserved1")
    2161                            .dwattr $C$DW$146, DW_AT_bit_offset(0x08)
    2162                            .dwattr $C$DW$146, DW_AT_bit_size(0x04)
    2163                            .dwattr $C$DW$146, DW_AT_data_member_location[DW_OP_plus_uconst 0x0]
    2164                            .dwattr $C$DW$146, DW_AT_accessibility(DW_ACCESS_public)
    2165                            .dwattr $C$DW$146, DW_AT_decl_file("C:/ti/ccsv7/ccs_base/arm/include/CMSIS/core_cm4.h")
    2166                            .dwattr $C$DW$146, DW_AT_decl_line(0x142)
    2167                            .dwattr $C$DW$146, DW_AT_decl_column(0x0e)
    2168                    
    2169                    $C$DW$147       .dwtag  DW_TAG_member
    2170                            .dwattr $C$DW$147, DW_AT_type(*$C$DW$T$19)
    2171                            .dwattr $C$DW$147, DW_AT_name("T")
    2172                            .dwattr $C$DW$147, DW_AT_TI_symbol_name("T")
    2173                            .dwattr $C$DW$147, DW_AT_bit_offset(0x07)
    2174                            .dwattr $C$DW$147, DW_AT_bit_size(0x01)
    2175                            .dwattr $C$DW$147, DW_AT_data_member_location[DW_OP_plus_uconst 0x0]
TI ARM Assembler PC v16.9.6 Fri Mar 20 15:43:33 2026

Tools Copyright (c) 1996-2017 Texas Instruments Incorporated
Clock.asm                                                            PAGE   41

    2176                            .dwattr $C$DW$147, DW_AT_accessibility(DW_ACCESS_public)
    2177                            .dwattr $C$DW$147, DW_AT_decl_file("C:/ti/ccsv7/ccs_base/arm/include/CMSIS/core_cm4.h")
    2178                            .dwattr $C$DW$147, DW_AT_decl_line(0x143)
    2179                            .dwattr $C$DW$147, DW_AT_decl_column(0x0e)
    2180                    
    2181                    $C$DW$148       .dwtag  DW_TAG_member
    2182                            .dwattr $C$DW$148, DW_AT_type(*$C$DW$T$19)
    2183                            .dwattr $C$DW$148, DW_AT_name("ICI_IT_2")
    2184                            .dwattr $C$DW$148, DW_AT_TI_symbol_name("ICI_IT_2")
    2185                            .dwattr $C$DW$148, DW_AT_bit_offset(0x05)
    2186                            .dwattr $C$DW$148, DW_AT_bit_size(0x02)
    2187                            .dwattr $C$DW$148, DW_AT_data_member_location[DW_OP_plus_uconst 0x0]
    2188                            .dwattr $C$DW$148, DW_AT_accessibility(DW_ACCESS_public)
    2189                            .dwattr $C$DW$148, DW_AT_decl_file("C:/ti/ccsv7/ccs_base/arm/include/CMSIS/core_cm4.h")
    2190                            .dwattr $C$DW$148, DW_AT_decl_line(0x144)
    2191                            .dwattr $C$DW$148, DW_AT_decl_column(0x0e)
    2192                    
    2193                    $C$DW$149       .dwtag  DW_TAG_member
    2194                            .dwattr $C$DW$149, DW_AT_type(*$C$DW$T$19)
    2195                            .dwattr $C$DW$149, DW_AT_name("Q")
    2196                            .dwattr $C$DW$149, DW_AT_TI_symbol_name("Q")
    2197                            .dwattr $C$DW$149, DW_AT_bit_offset(0x04)
    2198                            .dwattr $C$DW$149, DW_AT_bit_size(0x01)
    2199                            .dwattr $C$DW$149, DW_AT_data_member_location[DW_OP_plus_uconst 0x0]
    2200                            .dwattr $C$DW$149, DW_AT_accessibility(DW_ACCESS_public)
    2201                            .dwattr $C$DW$149, DW_AT_decl_file("C:/ti/ccsv7/ccs_base/arm/include/CMSIS/core_cm4.h")
    2202                            .dwattr $C$DW$149, DW_AT_decl_line(0x145)
    2203                            .dwattr $C$DW$149, DW_AT_decl_column(0x0e)
    2204                    
    2205                    $C$DW$150       .dwtag  DW_TAG_member
    2206                            .dwattr $C$DW$150, DW_AT_type(*$C$DW$T$19)
    2207                            .dwattr $C$DW$150, DW_AT_name("V")
    2208                            .dwattr $C$DW$150, DW_AT_TI_symbol_name("V")
    2209                            .dwattr $C$DW$150, DW_AT_bit_offset(0x03)
    2210                            .dwattr $C$DW$150, DW_AT_bit_size(0x01)
    2211                            .dwattr $C$DW$150, DW_AT_data_member_location[DW_OP_plus_uconst 0x0]
    2212                            .dwattr $C$DW$150, DW_AT_accessibility(DW_ACCESS_public)
    2213                            .dwattr $C$DW$150, DW_AT_decl_file("C:/ti/ccsv7/ccs_base/arm/include/CMSIS/core_cm4.h")
    2214                            .dwattr $C$DW$150, DW_AT_decl_line(0x146)
    2215                            .dwattr $C$DW$150, DW_AT_decl_column(0x0e)
    2216                    
    2217                    $C$DW$151       .dwtag  DW_TAG_member
    2218                            .dwattr $C$DW$151, DW_AT_type(*$C$DW$T$19)
    2219                            .dwattr $C$DW$151, DW_AT_name("C")
    2220                            .dwattr $C$DW$151, DW_AT_TI_symbol_name("C")
    2221                            .dwattr $C$DW$151, DW_AT_bit_offset(0x02)
    2222                            .dwattr $C$DW$151, DW_AT_bit_size(0x01)
    2223                            .dwattr $C$DW$151, DW_AT_data_member_location[DW_OP_plus_uconst 0x0]
    2224                            .dwattr $C$DW$151, DW_AT_accessibility(DW_ACCESS_public)
    2225                            .dwattr $C$DW$151, DW_AT_decl_file("C:/ti/ccsv7/ccs_base/arm/include/CMSIS/core_cm4.h")
    2226                            .dwattr $C$DW$151, DW_AT_decl_line(0x147)
    2227                            .dwattr $C$DW$151, DW_AT_decl_column(0x0e)
    2228                    
    2229                    $C$DW$152       .dwtag  DW_TAG_member
    2230                            .dwattr $C$DW$152, DW_AT_type(*$C$DW$T$19)
TI ARM Assembler PC v16.9.6 Fri Mar 20 15:43:33 2026

Tools Copyright (c) 1996-2017 Texas Instruments Incorporated
Clock.asm                                                            PAGE   42

    2231                            .dwattr $C$DW$152, DW_AT_name("Z")
    2232                            .dwattr $C$DW$152, DW_AT_TI_symbol_name("Z")
    2233                            .dwattr $C$DW$152, DW_AT_bit_offset(0x01)
    2234                            .dwattr $C$DW$152, DW_AT_bit_size(0x01)
    2235                            .dwattr $C$DW$152, DW_AT_data_member_location[DW_OP_plus_uconst 0x0]
    2236                            .dwattr $C$DW$152, DW_AT_accessibility(DW_ACCESS_public)
    2237                            .dwattr $C$DW$152, DW_AT_decl_file("C:/ti/ccsv7/ccs_base/arm/include/CMSIS/core_cm4.h")
    2238                            .dwattr $C$DW$152, DW_AT_decl_line(0x148)
    2239                            .dwattr $C$DW$152, DW_AT_decl_column(0x0e)
    2240                    
    2241                    $C$DW$153       .dwtag  DW_TAG_member
    2242                            .dwattr $C$DW$153, DW_AT_type(*$C$DW$T$19)
    2243                            .dwattr $C$DW$153, DW_AT_name("N")
    2244                            .dwattr $C$DW$153, DW_AT_TI_symbol_name("N")
    2245                            .dwattr $C$DW$153, DW_AT_bit_offset(0x00)
    2246                            .dwattr $C$DW$153, DW_AT_bit_size(0x01)
    2247                            .dwattr $C$DW$153, DW_AT_data_member_location[DW_OP_plus_uconst 0x0]
    2248                            .dwattr $C$DW$153, DW_AT_accessibility(DW_ACCESS_public)
    2249                            .dwattr $C$DW$153, DW_AT_decl_file("C:/ti/ccsv7/ccs_base/arm/include/CMSIS/core_cm4.h")
    2250                            .dwattr $C$DW$153, DW_AT_decl_line(0x149)
    2251                            .dwattr $C$DW$153, DW_AT_decl_column(0x0e)
    2252                    
    2253                            .dwattr $C$DW$T$45, DW_AT_decl_file("C:/ti/ccsv7/ccs_base/arm/include/CMSIS/core_cm4.h")
    2254                            .dwattr $C$DW$T$45, DW_AT_decl_line(0x13d)
    2255                            .dwattr $C$DW$T$45, DW_AT_decl_column(0x03)
    2256                            .dwendtag $C$DW$T$45
    2257                    
    2258                    
    2259                    $C$DW$T$46      .dwtag  DW_TAG_structure_type
    2260                            .dwattr $C$DW$T$46, DW_AT_byte_size(0x04)
    2261                    $C$DW$154       .dwtag  DW_TAG_member
    2262                            .dwattr $C$DW$154, DW_AT_type(*$C$DW$T$19)
    2263                            .dwattr $C$DW$154, DW_AT_name("nPRIV")
    2264                            .dwattr $C$DW$154, DW_AT_TI_symbol_name("nPRIV")
    2265                            .dwattr $C$DW$154, DW_AT_bit_offset(0x1f)
    2266                            .dwattr $C$DW$154, DW_AT_bit_size(0x01)
    2267                            .dwattr $C$DW$154, DW_AT_data_member_location[DW_OP_plus_uconst 0x0]
    2268                            .dwattr $C$DW$154, DW_AT_accessibility(DW_ACCESS_public)
    2269                            .dwattr $C$DW$154, DW_AT_decl_file("C:/ti/ccsv7/ccs_base/arm/include/CMSIS/core_cm4.h")
    2270                            .dwattr $C$DW$154, DW_AT_decl_line(0x175)
    2271                            .dwattr $C$DW$154, DW_AT_decl_column(0x0e)
    2272                    
    2273                    $C$DW$155       .dwtag  DW_TAG_member
    2274                            .dwattr $C$DW$155, DW_AT_type(*$C$DW$T$19)
    2275                            .dwattr $C$DW$155, DW_AT_name("SPSEL")
    2276                            .dwattr $C$DW$155, DW_AT_TI_symbol_name("SPSEL")
    2277                            .dwattr $C$DW$155, DW_AT_bit_offset(0x1e)
    2278                            .dwattr $C$DW$155, DW_AT_bit_size(0x01)
    2279                            .dwattr $C$DW$155, DW_AT_data_member_location[DW_OP_plus_uconst 0x0]
    2280                            .dwattr $C$DW$155, DW_AT_accessibility(DW_ACCESS_public)
    2281                            .dwattr $C$DW$155, DW_AT_decl_file("C:/ti/ccsv7/ccs_base/arm/include/CMSIS/core_cm4.h")
    2282                            .dwattr $C$DW$155, DW_AT_decl_line(0x176)
    2283                            .dwattr $C$DW$155, DW_AT_decl_column(0x0e)
    2284                    
    2285                    $C$DW$156       .dwtag  DW_TAG_member
TI ARM Assembler PC v16.9.6 Fri Mar 20 15:43:33 2026

Tools Copyright (c) 1996-2017 Texas Instruments Incorporated
Clock.asm                                                            PAGE   43

    2286                            .dwattr $C$DW$156, DW_AT_type(*$C$DW$T$19)
    2287                            .dwattr $C$DW$156, DW_AT_name("FPCA")
    2288                            .dwattr $C$DW$156, DW_AT_TI_symbol_name("FPCA")
    2289                            .dwattr $C$DW$156, DW_AT_bit_offset(0x1d)
    2290                            .dwattr $C$DW$156, DW_AT_bit_size(0x01)
    2291                            .dwattr $C$DW$156, DW_AT_data_member_location[DW_OP_plus_uconst 0x0]
    2292                            .dwattr $C$DW$156, DW_AT_accessibility(DW_ACCESS_public)
    2293                            .dwattr $C$DW$156, DW_AT_decl_file("C:/ti/ccsv7/ccs_base/arm/include/CMSIS/core_cm4.h")
    2294                            .dwattr $C$DW$156, DW_AT_decl_line(0x177)
    2295                            .dwattr $C$DW$156, DW_AT_decl_column(0x0e)
    2296                    
    2297                    $C$DW$157       .dwtag  DW_TAG_member
    2298                            .dwattr $C$DW$157, DW_AT_type(*$C$DW$T$19)
    2299                            .dwattr $C$DW$157, DW_AT_name("_reserved0")
    2300                            .dwattr $C$DW$157, DW_AT_TI_symbol_name("_reserved0")
    2301                            .dwattr $C$DW$157, DW_AT_bit_offset(0x00)
    2302                            .dwattr $C$DW$157, DW_AT_bit_size(0x1d)
    2303                            .dwattr $C$DW$157, DW_AT_data_member_location[DW_OP_plus_uconst 0x0]
    2304                            .dwattr $C$DW$157, DW_AT_accessibility(DW_ACCESS_public)
    2305                            .dwattr $C$DW$157, DW_AT_decl_file("C:/ti/ccsv7/ccs_base/arm/include/CMSIS/core_cm4.h")
    2306                            .dwattr $C$DW$157, DW_AT_decl_line(0x178)
    2307                            .dwattr $C$DW$157, DW_AT_decl_column(0x0e)
    2308                    
    2309                            .dwattr $C$DW$T$46, DW_AT_decl_file("C:/ti/ccsv7/ccs_base/arm/include/CMSIS/core_cm4.h")
    2310                            .dwattr $C$DW$T$46, DW_AT_decl_line(0x174)
    2311                            .dwattr $C$DW$T$46, DW_AT_decl_column(0x03)
    2312                            .dwendtag $C$DW$T$46
    2313                    
    2314                    
    2315                    $C$DW$T$52      .dwtag  DW_TAG_structure_type
    2316                            .dwattr $C$DW$T$52, DW_AT_byte_size(0xe04)
    2317                    $C$DW$158       .dwtag  DW_TAG_member
    2318                            .dwattr $C$DW$158, DW_AT_type(*$C$DW$T$47)
    2319                            .dwattr $C$DW$158, DW_AT_name("ISER")
    2320                            .dwattr $C$DW$158, DW_AT_TI_symbol_name("ISER")
    2321                            .dwattr $C$DW$158, DW_AT_data_member_location[DW_OP_plus_uconst 0x0]
    2322                            .dwattr $C$DW$158, DW_AT_accessibility(DW_ACCESS_public)
    2323                            .dwattr $C$DW$158, DW_AT_decl_file("C:/ti/ccsv7/ccs_base/arm/include/CMSIS/core_cm4.h")
    2324                            .dwattr $C$DW$158, DW_AT_decl_line(0x196)
    2325                            .dwattr $C$DW$158, DW_AT_decl_column(0x12)
    2326                    
    2327                    $C$DW$159       .dwtag  DW_TAG_member
    2328                            .dwattr $C$DW$159, DW_AT_type(*$C$DW$T$48)
    2329                            .dwattr $C$DW$159, DW_AT_name("RESERVED0")
    2330                            .dwattr $C$DW$159, DW_AT_TI_symbol_name("RESERVED0")
    2331                            .dwattr $C$DW$159, DW_AT_data_member_location[DW_OP_plus_uconst 0x20]
    2332                            .dwattr $C$DW$159, DW_AT_accessibility(DW_ACCESS_public)
    2333                            .dwattr $C$DW$159, DW_AT_decl_file("C:/ti/ccsv7/ccs_base/arm/include/CMSIS/core_cm4.h")
    2334                            .dwattr $C$DW$159, DW_AT_decl_line(0x197)
    2335                            .dwattr $C$DW$159, DW_AT_decl_column(0x12)
    2336                    
    2337                    $C$DW$160       .dwtag  DW_TAG_member
    2338                            .dwattr $C$DW$160, DW_AT_type(*$C$DW$T$47)
    2339                            .dwattr $C$DW$160, DW_AT_name("ICER")
    2340                            .dwattr $C$DW$160, DW_AT_TI_symbol_name("ICER")
TI ARM Assembler PC v16.9.6 Fri Mar 20 15:43:33 2026

Tools Copyright (c) 1996-2017 Texas Instruments Incorporated
Clock.asm                                                            PAGE   44

    2341                            .dwattr $C$DW$160, DW_AT_data_member_location[DW_OP_plus_uconst 0x80]
    2342                            .dwattr $C$DW$160, DW_AT_accessibility(DW_ACCESS_public)
    2343                            .dwattr $C$DW$160, DW_AT_decl_file("C:/ti/ccsv7/ccs_base/arm/include/CMSIS/core_cm4.h")
    2344                            .dwattr $C$DW$160, DW_AT_decl_line(0x198)
    2345                            .dwattr $C$DW$160, DW_AT_decl_column(0x12)
    2346                    
    2347                    $C$DW$161       .dwtag  DW_TAG_member
    2348                            .dwattr $C$DW$161, DW_AT_type(*$C$DW$T$48)
    2349                            .dwattr $C$DW$161, DW_AT_name("RSERVED1")
    2350                            .dwattr $C$DW$161, DW_AT_TI_symbol_name("RSERVED1")
    2351                            .dwattr $C$DW$161, DW_AT_data_member_location[DW_OP_plus_uconst 0xa0]
    2352                            .dwattr $C$DW$161, DW_AT_accessibility(DW_ACCESS_public)
    2353                            .dwattr $C$DW$161, DW_AT_decl_file("C:/ti/ccsv7/ccs_base/arm/include/CMSIS/core_cm4.h")
    2354                            .dwattr $C$DW$161, DW_AT_decl_line(0x199)
    2355                            .dwattr $C$DW$161, DW_AT_decl_column(0x12)
    2356                    
    2357                    $C$DW$162       .dwtag  DW_TAG_member
    2358                            .dwattr $C$DW$162, DW_AT_type(*$C$DW$T$47)
    2359                            .dwattr $C$DW$162, DW_AT_name("ISPR")
    2360                            .dwattr $C$DW$162, DW_AT_TI_symbol_name("ISPR")
    2361                            .dwattr $C$DW$162, DW_AT_data_member_location[DW_OP_plus_uconst 0x100]
    2362                            .dwattr $C$DW$162, DW_AT_accessibility(DW_ACCESS_public)
    2363                            .dwattr $C$DW$162, DW_AT_decl_file("C:/ti/ccsv7/ccs_base/arm/include/CMSIS/core_cm4.h")
    2364                            .dwattr $C$DW$162, DW_AT_decl_line(0x19a)
    2365                            .dwattr $C$DW$162, DW_AT_decl_column(0x12)
    2366                    
    2367                    $C$DW$163       .dwtag  DW_TAG_member
    2368                            .dwattr $C$DW$163, DW_AT_type(*$C$DW$T$48)
    2369                            .dwattr $C$DW$163, DW_AT_name("RESERVED2")
    2370                            .dwattr $C$DW$163, DW_AT_TI_symbol_name("RESERVED2")
    2371                            .dwattr $C$DW$163, DW_AT_data_member_location[DW_OP_plus_uconst 0x120]
    2372                            .dwattr $C$DW$163, DW_AT_accessibility(DW_ACCESS_public)
    2373                            .dwattr $C$DW$163, DW_AT_decl_file("C:/ti/ccsv7/ccs_base/arm/include/CMSIS/core_cm4.h")
    2374                            .dwattr $C$DW$163, DW_AT_decl_line(0x19b)
    2375                            .dwattr $C$DW$163, DW_AT_decl_column(0x12)
    2376                    
    2377                    $C$DW$164       .dwtag  DW_TAG_member
    2378                            .dwattr $C$DW$164, DW_AT_type(*$C$DW$T$47)
    2379                            .dwattr $C$DW$164, DW_AT_name("ICPR")
    2380                            .dwattr $C$DW$164, DW_AT_TI_symbol_name("ICPR")
    2381                            .dwattr $C$DW$164, DW_AT_data_member_location[DW_OP_plus_uconst 0x180]
    2382                            .dwattr $C$DW$164, DW_AT_accessibility(DW_ACCESS_public)
    2383                            .dwattr $C$DW$164, DW_AT_decl_file("C:/ti/ccsv7/ccs_base/arm/include/CMSIS/core_cm4.h")
    2384                            .dwattr $C$DW$164, DW_AT_decl_line(0x19c)
    2385                            .dwattr $C$DW$164, DW_AT_decl_column(0x12)
    2386                    
    2387                    $C$DW$165       .dwtag  DW_TAG_member
    2388                            .dwattr $C$DW$165, DW_AT_type(*$C$DW$T$48)
    2389                            .dwattr $C$DW$165, DW_AT_name("RESERVED3")
    2390                            .dwattr $C$DW$165, DW_AT_TI_symbol_name("RESERVED3")
    2391                            .dwattr $C$DW$165, DW_AT_data_member_location[DW_OP_plus_uconst 0x1a0]
    2392                            .dwattr $C$DW$165, DW_AT_accessibility(DW_ACCESS_public)
    2393                            .dwattr $C$DW$165, DW_AT_decl_file("C:/ti/ccsv7/ccs_base/arm/include/CMSIS/core_cm4.h")
    2394                            .dwattr $C$DW$165, DW_AT_decl_line(0x19d)
    2395                            .dwattr $C$DW$165, DW_AT_decl_column(0x12)
TI ARM Assembler PC v16.9.6 Fri Mar 20 15:43:33 2026

Tools Copyright (c) 1996-2017 Texas Instruments Incorporated
Clock.asm                                                            PAGE   45

    2396                    
    2397                    $C$DW$166       .dwtag  DW_TAG_member
    2398                            .dwattr $C$DW$166, DW_AT_type(*$C$DW$T$47)
    2399                            .dwattr $C$DW$166, DW_AT_name("IABR")
    2400                            .dwattr $C$DW$166, DW_AT_TI_symbol_name("IABR")
    2401                            .dwattr $C$DW$166, DW_AT_data_member_location[DW_OP_plus_uconst 0x200]
    2402                            .dwattr $C$DW$166, DW_AT_accessibility(DW_ACCESS_public)
    2403                            .dwattr $C$DW$166, DW_AT_decl_file("C:/ti/ccsv7/ccs_base/arm/include/CMSIS/core_cm4.h")
    2404                            .dwattr $C$DW$166, DW_AT_decl_line(0x19e)
    2405                            .dwattr $C$DW$166, DW_AT_decl_column(0x12)
    2406                    
    2407                    $C$DW$167       .dwtag  DW_TAG_member
    2408                            .dwattr $C$DW$167, DW_AT_type(*$C$DW$T$49)
    2409                            .dwattr $C$DW$167, DW_AT_name("RESERVED4")
    2410                            .dwattr $C$DW$167, DW_AT_TI_symbol_name("RESERVED4")
    2411                            .dwattr $C$DW$167, DW_AT_data_member_location[DW_OP_plus_uconst 0x220]
    2412                            .dwattr $C$DW$167, DW_AT_accessibility(DW_ACCESS_public)
    2413                            .dwattr $C$DW$167, DW_AT_decl_file("C:/ti/ccsv7/ccs_base/arm/include/CMSIS/core_cm4.h")
    2414                            .dwattr $C$DW$167, DW_AT_decl_line(0x19f)
    2415                            .dwattr $C$DW$167, DW_AT_decl_column(0x12)
    2416                    
    2417                    $C$DW$168       .dwtag  DW_TAG_member
    2418                            .dwattr $C$DW$168, DW_AT_type(*$C$DW$T$50)
    2419                            .dwattr $C$DW$168, DW_AT_name("IP")
    2420                            .dwattr $C$DW$168, DW_AT_TI_symbol_name("IP")
    2421                            .dwattr $C$DW$168, DW_AT_data_member_location[DW_OP_plus_uconst 0x300]
    2422                            .dwattr $C$DW$168, DW_AT_accessibility(DW_ACCESS_public)
    2423                            .dwattr $C$DW$168, DW_AT_decl_file("C:/ti/ccsv7/ccs_base/arm/include/CMSIS/core_cm4.h")
    2424                            .dwattr $C$DW$168, DW_AT_decl_line(0x1a0)
    2425                            .dwattr $C$DW$168, DW_AT_decl_column(0x12)
    2426                    
    2427                    $C$DW$169       .dwtag  DW_TAG_member
    2428                            .dwattr $C$DW$169, DW_AT_type(*$C$DW$T$51)
    2429                            .dwattr $C$DW$169, DW_AT_name("RESERVED5")
    2430                            .dwattr $C$DW$169, DW_AT_TI_symbol_name("RESERVED5")
    2431                            .dwattr $C$DW$169, DW_AT_data_member_location[DW_OP_plus_uconst 0x3f0]
    2432                            .dwattr $C$DW$169, DW_AT_accessibility(DW_ACCESS_public)
    2433                            .dwattr $C$DW$169, DW_AT_decl_file("C:/ti/ccsv7/ccs_base/arm/include/CMSIS/core_cm4.h")
    2434                            .dwattr $C$DW$169, DW_AT_decl_line(0x1a1)
    2435                            .dwattr $C$DW$169, DW_AT_decl_column(0x12)
    2436                    
    2437                    $C$DW$170       .dwtag  DW_TAG_member
    2438                            .dwattr $C$DW$170, DW_AT_type(*$C$DW$T$20)
    2439                            .dwattr $C$DW$170, DW_AT_name("STIR")
    2440                            .dwattr $C$DW$170, DW_AT_TI_symbol_name("STIR")
    2441                            .dwattr $C$DW$170, DW_AT_data_member_location[DW_OP_plus_uconst 0xe00]
    2442                            .dwattr $C$DW$170, DW_AT_accessibility(DW_ACCESS_public)
    2443                            .dwattr $C$DW$170, DW_AT_decl_file("C:/ti/ccsv7/ccs_base/arm/include/CMSIS/core_cm4.h")
    2444                            .dwattr $C$DW$170, DW_AT_decl_line(0x1a2)
    2445                            .dwattr $C$DW$170, DW_AT_decl_column(0x12)
    2446                    
    2447                            .dwattr $C$DW$T$52, DW_AT_decl_file("C:/ti/ccsv7/ccs_base/arm/include/CMSIS/core_cm4.h")
    2448                            .dwattr $C$DW$T$52, DW_AT_decl_line(0x195)
    2449                            .dwattr $C$DW$T$52, DW_AT_decl_column(0x01)
    2450                            .dwendtag $C$DW$T$52
TI ARM Assembler PC v16.9.6 Fri Mar 20 15:43:33 2026

Tools Copyright (c) 1996-2017 Texas Instruments Incorporated
Clock.asm                                                            PAGE   46

    2451                    
    2452                    $C$DW$T$180     .dwtag  DW_TAG_typedef
    2453                            .dwattr $C$DW$T$180, DW_AT_name("NVIC_Type")
    2454                            .dwattr $C$DW$T$180, DW_AT_type(*$C$DW$T$52)
    2455                            .dwattr $C$DW$T$180, DW_AT_language(DW_LANG_C)
    2456                            .dwattr $C$DW$T$180, DW_AT_decl_file("C:/ti/ccsv7/ccs_base/arm/include/CMSIS/core_cm4.h")
    2457                            .dwattr $C$DW$T$180, DW_AT_decl_line(0x1a3)
    2458                            .dwattr $C$DW$T$180, DW_AT_decl_column(0x04)
    2459                    
    2460                    
    2461                    $C$DW$T$58      .dwtag  DW_TAG_structure_type
    2462                            .dwattr $C$DW$T$58, DW_AT_byte_size(0x8c)
    2463                    $C$DW$171       .dwtag  DW_TAG_member
    2464                            .dwattr $C$DW$171, DW_AT_type(*$C$DW$T$21)
    2465                            .dwattr $C$DW$171, DW_AT_name("CPUID")
    2466                            .dwattr $C$DW$171, DW_AT_TI_symbol_name("CPUID")
    2467                            .dwattr $C$DW$171, DW_AT_data_member_location[DW_OP_plus_uconst 0x0]
    2468                            .dwattr $C$DW$171, DW_AT_accessibility(DW_ACCESS_public)
    2469                            .dwattr $C$DW$171, DW_AT_decl_file("C:/ti/ccsv7/ccs_base/arm/include/CMSIS/core_cm4.h")
    2470                            .dwattr $C$DW$171, DW_AT_decl_line(0x1b8)
    2471                            .dwattr $C$DW$171, DW_AT_decl_column(0x12)
    2472                    
    2473                    $C$DW$172       .dwtag  DW_TAG_member
    2474                            .dwattr $C$DW$172, DW_AT_type(*$C$DW$T$20)
    2475                            .dwattr $C$DW$172, DW_AT_name("ICSR")
    2476                            .dwattr $C$DW$172, DW_AT_TI_symbol_name("ICSR")
    2477                            .dwattr $C$DW$172, DW_AT_data_member_location[DW_OP_plus_uconst 0x4]
    2478                            .dwattr $C$DW$172, DW_AT_accessibility(DW_ACCESS_public)
    2479                            .dwattr $C$DW$172, DW_AT_decl_file("C:/ti/ccsv7/ccs_base/arm/include/CMSIS/core_cm4.h")
    2480                            .dwattr $C$DW$172, DW_AT_decl_line(0x1b9)
    2481                            .dwattr $C$DW$172, DW_AT_decl_column(0x12)
    2482                    
    2483                    $C$DW$173       .dwtag  DW_TAG_member
    2484                            .dwattr $C$DW$173, DW_AT_type(*$C$DW$T$20)
    2485                            .dwattr $C$DW$173, DW_AT_name("VTOR")
    2486                            .dwattr $C$DW$173, DW_AT_TI_symbol_name("VTOR")
    2487                            .dwattr $C$DW$173, DW_AT_data_member_location[DW_OP_plus_uconst 0x8]
    2488                            .dwattr $C$DW$173, DW_AT_accessibility(DW_ACCESS_public)
    2489                            .dwattr $C$DW$173, DW_AT_decl_file("C:/ti/ccsv7/ccs_base/arm/include/CMSIS/core_cm4.h")
    2490                            .dwattr $C$DW$173, DW_AT_decl_line(0x1ba)
    2491                            .dwattr $C$DW$173, DW_AT_decl_column(0x12)
    2492                    
    2493                    $C$DW$174       .dwtag  DW_TAG_member
    2494                            .dwattr $C$DW$174, DW_AT_type(*$C$DW$T$20)
    2495                            .dwattr $C$DW$174, DW_AT_name("AIRCR")
    2496                            .dwattr $C$DW$174, DW_AT_TI_symbol_name("AIRCR")
    2497                            .dwattr $C$DW$174, DW_AT_data_member_location[DW_OP_plus_uconst 0xc]
    2498                            .dwattr $C$DW$174, DW_AT_accessibility(DW_ACCESS_public)
    2499                            .dwattr $C$DW$174, DW_AT_decl_file("C:/ti/ccsv7/ccs_base/arm/include/CMSIS/core_cm4.h")
    2500                            .dwattr $C$DW$174, DW_AT_decl_line(0x1bb)
    2501                            .dwattr $C$DW$174, DW_AT_decl_column(0x12)
    2502                    
    2503                    $C$DW$175       .dwtag  DW_TAG_member
    2504                            .dwattr $C$DW$175, DW_AT_type(*$C$DW$T$20)
    2505                            .dwattr $C$DW$175, DW_AT_name("SCR")
TI ARM Assembler PC v16.9.6 Fri Mar 20 15:43:33 2026

Tools Copyright (c) 1996-2017 Texas Instruments Incorporated
Clock.asm                                                            PAGE   47

    2506                            .dwattr $C$DW$175, DW_AT_TI_symbol_name("SCR")
    2507                            .dwattr $C$DW$175, DW_AT_data_member_location[DW_OP_plus_uconst 0x10]
    2508                            .dwattr $C$DW$175, DW_AT_accessibility(DW_ACCESS_public)
    2509                            .dwattr $C$DW$175, DW_AT_decl_file("C:/ti/ccsv7/ccs_base/arm/include/CMSIS/core_cm4.h")
    2510                            .dwattr $C$DW$175, DW_AT_decl_line(0x1bc)
    2511                            .dwattr $C$DW$175, DW_AT_decl_column(0x12)
    2512                    
    2513                    $C$DW$176       .dwtag  DW_TAG_member
    2514                            .dwattr $C$DW$176, DW_AT_type(*$C$DW$T$20)
    2515                            .dwattr $C$DW$176, DW_AT_name("CCR")
    2516                            .dwattr $C$DW$176, DW_AT_TI_symbol_name("CCR")
    2517                            .dwattr $C$DW$176, DW_AT_data_member_location[DW_OP_plus_uconst 0x14]
    2518                            .dwattr $C$DW$176, DW_AT_accessibility(DW_ACCESS_public)
    2519                            .dwattr $C$DW$176, DW_AT_decl_file("C:/ti/ccsv7/ccs_base/arm/include/CMSIS/core_cm4.h")
    2520                            .dwattr $C$DW$176, DW_AT_decl_line(0x1bd)
    2521                            .dwattr $C$DW$176, DW_AT_decl_column(0x12)
    2522                    
    2523                    $C$DW$177       .dwtag  DW_TAG_member
    2524                            .dwattr $C$DW$177, DW_AT_type(*$C$DW$T$53)
    2525                            .dwattr $C$DW$177, DW_AT_name("SHP")
    2526                            .dwattr $C$DW$177, DW_AT_TI_symbol_name("SHP")
    2527                            .dwattr $C$DW$177, DW_AT_data_member_location[DW_OP_plus_uconst 0x18]
    2528                            .dwattr $C$DW$177, DW_AT_accessibility(DW_ACCESS_public)
    2529                            .dwattr $C$DW$177, DW_AT_decl_file("C:/ti/ccsv7/ccs_base/arm/include/CMSIS/core_cm4.h")
    2530                            .dwattr $C$DW$177, DW_AT_decl_line(0x1be)
    2531                            .dwattr $C$DW$177, DW_AT_decl_column(0x12)
    2532                    
    2533                    $C$DW$178       .dwtag  DW_TAG_member
    2534                            .dwattr $C$DW$178, DW_AT_type(*$C$DW$T$20)
    2535                            .dwattr $C$DW$178, DW_AT_name("SHCSR")
    2536                            .dwattr $C$DW$178, DW_AT_TI_symbol_name("SHCSR")
    2537                            .dwattr $C$DW$178, DW_AT_data_member_location[DW_OP_plus_uconst 0x24]
    2538                            .dwattr $C$DW$178, DW_AT_accessibility(DW_ACCESS_public)
    2539                            .dwattr $C$DW$178, DW_AT_decl_file("C:/ti/ccsv7/ccs_base/arm/include/CMSIS/core_cm4.h")
    2540                            .dwattr $C$DW$178, DW_AT_decl_line(0x1bf)
    2541                            .dwattr $C$DW$178, DW_AT_decl_column(0x12)
    2542                    
    2543                    $C$DW$179       .dwtag  DW_TAG_member
    2544                            .dwattr $C$DW$179, DW_AT_type(*$C$DW$T$20)
    2545                            .dwattr $C$DW$179, DW_AT_name("CFSR")
    2546                            .dwattr $C$DW$179, DW_AT_TI_symbol_name("CFSR")
    2547                            .dwattr $C$DW$179, DW_AT_data_member_location[DW_OP_plus_uconst 0x28]
    2548                            .dwattr $C$DW$179, DW_AT_accessibility(DW_ACCESS_public)
    2549                            .dwattr $C$DW$179, DW_AT_decl_file("C:/ti/ccsv7/ccs_base/arm/include/CMSIS/core_cm4.h")
    2550                            .dwattr $C$DW$179, DW_AT_decl_line(0x1c0)
    2551                            .dwattr $C$DW$179, DW_AT_decl_column(0x12)
    2552                    
    2553                    $C$DW$180       .dwtag  DW_TAG_member
    2554                            .dwattr $C$DW$180, DW_AT_type(*$C$DW$T$20)
    2555                            .dwattr $C$DW$180, DW_AT_name("HFSR")
    2556                            .dwattr $C$DW$180, DW_AT_TI_symbol_name("HFSR")
    2557                            .dwattr $C$DW$180, DW_AT_data_member_location[DW_OP_plus_uconst 0x2c]
    2558                            .dwattr $C$DW$180, DW_AT_accessibility(DW_ACCESS_public)
    2559                            .dwattr $C$DW$180, DW_AT_decl_file("C:/ti/ccsv7/ccs_base/arm/include/CMSIS/core_cm4.h")
    2560                            .dwattr $C$DW$180, DW_AT_decl_line(0x1c1)
TI ARM Assembler PC v16.9.6 Fri Mar 20 15:43:33 2026

Tools Copyright (c) 1996-2017 Texas Instruments Incorporated
Clock.asm                                                            PAGE   48

    2561                            .dwattr $C$DW$180, DW_AT_decl_column(0x12)
    2562                    
    2563                    $C$DW$181       .dwtag  DW_TAG_member
    2564                            .dwattr $C$DW$181, DW_AT_type(*$C$DW$T$20)
    2565                            .dwattr $C$DW$181, DW_AT_name("DFSR")
    2566                            .dwattr $C$DW$181, DW_AT_TI_symbol_name("DFSR")
    2567                            .dwattr $C$DW$181, DW_AT_data_member_location[DW_OP_plus_uconst 0x30]
    2568                            .dwattr $C$DW$181, DW_AT_accessibility(DW_ACCESS_public)
    2569                            .dwattr $C$DW$181, DW_AT_decl_file("C:/ti/ccsv7/ccs_base/arm/include/CMSIS/core_cm4.h")
    2570                            .dwattr $C$DW$181, DW_AT_decl_line(0x1c2)
    2571                            .dwattr $C$DW$181, DW_AT_decl_column(0x12)
    2572                    
    2573                    $C$DW$182       .dwtag  DW_TAG_member
    2574                            .dwattr $C$DW$182, DW_AT_type(*$C$DW$T$20)
    2575                            .dwattr $C$DW$182, DW_AT_name("MMFAR")
    2576                            .dwattr $C$DW$182, DW_AT_TI_symbol_name("MMFAR")
    2577                            .dwattr $C$DW$182, DW_AT_data_member_location[DW_OP_plus_uconst 0x34]
    2578                            .dwattr $C$DW$182, DW_AT_accessibility(DW_ACCESS_public)
    2579                            .dwattr $C$DW$182, DW_AT_decl_file("C:/ti/ccsv7/ccs_base/arm/include/CMSIS/core_cm4.h")
    2580                            .dwattr $C$DW$182, DW_AT_decl_line(0x1c3)
    2581                            .dwattr $C$DW$182, DW_AT_decl_column(0x12)
    2582                    
    2583                    $C$DW$183       .dwtag  DW_TAG_member
    2584                            .dwattr $C$DW$183, DW_AT_type(*$C$DW$T$20)
    2585                            .dwattr $C$DW$183, DW_AT_name("BFAR")
    2586                            .dwattr $C$DW$183, DW_AT_TI_symbol_name("BFAR")
    2587                            .dwattr $C$DW$183, DW_AT_data_member_location[DW_OP_plus_uconst 0x38]
    2588                            .dwattr $C$DW$183, DW_AT_accessibility(DW_ACCESS_public)
    2589                            .dwattr $C$DW$183, DW_AT_decl_file("C:/ti/ccsv7/ccs_base/arm/include/CMSIS/core_cm4.h")
    2590                            .dwattr $C$DW$183, DW_AT_decl_line(0x1c4)
    2591                            .dwattr $C$DW$183, DW_AT_decl_column(0x12)
    2592                    
    2593                    $C$DW$184       .dwtag  DW_TAG_member
    2594                            .dwattr $C$DW$184, DW_AT_type(*$C$DW$T$20)
    2595                            .dwattr $C$DW$184, DW_AT_name("AFSR")
    2596                            .dwattr $C$DW$184, DW_AT_TI_symbol_name("AFSR")
    2597                            .dwattr $C$DW$184, DW_AT_data_member_location[DW_OP_plus_uconst 0x3c]
    2598                            .dwattr $C$DW$184, DW_AT_accessibility(DW_ACCESS_public)
    2599                            .dwattr $C$DW$184, DW_AT_decl_file("C:/ti/ccsv7/ccs_base/arm/include/CMSIS/core_cm4.h")
    2600                            .dwattr $C$DW$184, DW_AT_decl_line(0x1c5)
    2601                            .dwattr $C$DW$184, DW_AT_decl_column(0x12)
    2602                    
    2603                    $C$DW$185       .dwtag  DW_TAG_member
    2604                            .dwattr $C$DW$185, DW_AT_type(*$C$DW$T$54)
    2605                            .dwattr $C$DW$185, DW_AT_name("PFR")
    2606                            .dwattr $C$DW$185, DW_AT_TI_symbol_name("PFR")
    2607                            .dwattr $C$DW$185, DW_AT_data_member_location[DW_OP_plus_uconst 0x40]
    2608                            .dwattr $C$DW$185, DW_AT_accessibility(DW_ACCESS_public)
    2609                            .dwattr $C$DW$185, DW_AT_decl_file("C:/ti/ccsv7/ccs_base/arm/include/CMSIS/core_cm4.h")
    2610                            .dwattr $C$DW$185, DW_AT_decl_line(0x1c6)
    2611                            .dwattr $C$DW$185, DW_AT_decl_column(0x12)
    2612                    
    2613                    $C$DW$186       .dwtag  DW_TAG_member
    2614                            .dwattr $C$DW$186, DW_AT_type(*$C$DW$T$21)
    2615                            .dwattr $C$DW$186, DW_AT_name("DFR")
TI ARM Assembler PC v16.9.6 Fri Mar 20 15:43:33 2026

Tools Copyright (c) 1996-2017 Texas Instruments Incorporated
Clock.asm                                                            PAGE   49

    2616                            .dwattr $C$DW$186, DW_AT_TI_symbol_name("DFR")
    2617                            .dwattr $C$DW$186, DW_AT_data_member_location[DW_OP_plus_uconst 0x48]
    2618                            .dwattr $C$DW$186, DW_AT_accessibility(DW_ACCESS_public)
    2619                            .dwattr $C$DW$186, DW_AT_decl_file("C:/ti/ccsv7/ccs_base/arm/include/CMSIS/core_cm4.h")
    2620                            .dwattr $C$DW$186, DW_AT_decl_line(0x1c7)
    2621                            .dwattr $C$DW$186, DW_AT_decl_column(0x12)
    2622                    
    2623                    $C$DW$187       .dwtag  DW_TAG_member
    2624                            .dwattr $C$DW$187, DW_AT_type(*$C$DW$T$21)
    2625                            .dwattr $C$DW$187, DW_AT_name("ADR")
    2626                            .dwattr $C$DW$187, DW_AT_TI_symbol_name("ADR")
    2627                            .dwattr $C$DW$187, DW_AT_data_member_location[DW_OP_plus_uconst 0x4c]
    2628                            .dwattr $C$DW$187, DW_AT_accessibility(DW_ACCESS_public)
    2629                            .dwattr $C$DW$187, DW_AT_decl_file("C:/ti/ccsv7/ccs_base/arm/include/CMSIS/core_cm4.h")
    2630                            .dwattr $C$DW$187, DW_AT_decl_line(0x1c8)
    2631                            .dwattr $C$DW$187, DW_AT_decl_column(0x12)
    2632                    
    2633                    $C$DW$188       .dwtag  DW_TAG_member
    2634                            .dwattr $C$DW$188, DW_AT_type(*$C$DW$T$55)
    2635                            .dwattr $C$DW$188, DW_AT_name("MMFR")
    2636                            .dwattr $C$DW$188, DW_AT_TI_symbol_name("MMFR")
    2637                            .dwattr $C$DW$188, DW_AT_data_member_location[DW_OP_plus_uconst 0x50]
    2638                            .dwattr $C$DW$188, DW_AT_accessibility(DW_ACCESS_public)
    2639                            .dwattr $C$DW$188, DW_AT_decl_file("C:/ti/ccsv7/ccs_base/arm/include/CMSIS/core_cm4.h")
    2640                            .dwattr $C$DW$188, DW_AT_decl_line(0x1c9)
    2641                            .dwattr $C$DW$188, DW_AT_decl_column(0x12)
    2642                    
    2643                    $C$DW$189       .dwtag  DW_TAG_member
    2644                            .dwattr $C$DW$189, DW_AT_type(*$C$DW$T$56)
    2645                            .dwattr $C$DW$189, DW_AT_name("ISAR")
    2646                            .dwattr $C$DW$189, DW_AT_TI_symbol_name("ISAR")
    2647                            .dwattr $C$DW$189, DW_AT_data_member_location[DW_OP_plus_uconst 0x60]
    2648                            .dwattr $C$DW$189, DW_AT_accessibility(DW_ACCESS_public)
    2649                            .dwattr $C$DW$189, DW_AT_decl_file("C:/ti/ccsv7/ccs_base/arm/include/CMSIS/core_cm4.h")
    2650                            .dwattr $C$DW$189, DW_AT_decl_line(0x1ca)
    2651                            .dwattr $C$DW$189, DW_AT_decl_column(0x12)
    2652                    
    2653                    $C$DW$190       .dwtag  DW_TAG_member
    2654                            .dwattr $C$DW$190, DW_AT_type(*$C$DW$T$57)
    2655                            .dwattr $C$DW$190, DW_AT_name("RESERVED0")
    2656                            .dwattr $C$DW$190, DW_AT_TI_symbol_name("RESERVED0")
    2657                            .dwattr $C$DW$190, DW_AT_data_member_location[DW_OP_plus_uconst 0x74]
    2658                            .dwattr $C$DW$190, DW_AT_accessibility(DW_ACCESS_public)
    2659                            .dwattr $C$DW$190, DW_AT_decl_file("C:/ti/ccsv7/ccs_base/arm/include/CMSIS/core_cm4.h")
    2660                            .dwattr $C$DW$190, DW_AT_decl_line(0x1cb)
    2661                            .dwattr $C$DW$190, DW_AT_decl_column(0x12)
    2662                    
    2663                    $C$DW$191       .dwtag  DW_TAG_member
    2664                            .dwattr $C$DW$191, DW_AT_type(*$C$DW$T$20)
    2665                            .dwattr $C$DW$191, DW_AT_name("CPACR")
    2666                            .dwattr $C$DW$191, DW_AT_TI_symbol_name("CPACR")
    2667                            .dwattr $C$DW$191, DW_AT_data_member_location[DW_OP_plus_uconst 0x88]
    2668                            .dwattr $C$DW$191, DW_AT_accessibility(DW_ACCESS_public)
    2669                            .dwattr $C$DW$191, DW_AT_decl_file("C:/ti/ccsv7/ccs_base/arm/include/CMSIS/core_cm4.h")
    2670                            .dwattr $C$DW$191, DW_AT_decl_line(0x1cc)
TI ARM Assembler PC v16.9.6 Fri Mar 20 15:43:33 2026

Tools Copyright (c) 1996-2017 Texas Instruments Incorporated
Clock.asm                                                            PAGE   50

    2671                            .dwattr $C$DW$191, DW_AT_decl_column(0x12)
    2672                    
    2673                            .dwattr $C$DW$T$58, DW_AT_decl_file("C:/ti/ccsv7/ccs_base/arm/include/CMSIS/core_cm4.h")
    2674                            .dwattr $C$DW$T$58, DW_AT_decl_line(0x1b7)
    2675                            .dwattr $C$DW$T$58, DW_AT_decl_column(0x01)
    2676                            .dwendtag $C$DW$T$58
    2677                    
    2678                    $C$DW$T$181     .dwtag  DW_TAG_typedef
    2679                            .dwattr $C$DW$T$181, DW_AT_name("SCB_Type")
    2680                            .dwattr $C$DW$T$181, DW_AT_type(*$C$DW$T$58)
    2681                            .dwattr $C$DW$T$181, DW_AT_language(DW_LANG_C)
    2682                            .dwattr $C$DW$T$181, DW_AT_decl_file("C:/ti/ccsv7/ccs_base/arm/include/CMSIS/core_cm4.h")
    2683                            .dwattr $C$DW$T$181, DW_AT_decl_line(0x1cd)
    2684                            .dwattr $C$DW$T$181, DW_AT_decl_column(0x03)
    2685                    
    2686                    
    2687                    $C$DW$T$60      .dwtag  DW_TAG_structure_type
    2688                            .dwattr $C$DW$T$60, DW_AT_byte_size(0x0c)
    2689                    $C$DW$192       .dwtag  DW_TAG_member
    2690                            .dwattr $C$DW$192, DW_AT_type(*$C$DW$T$59)
    2691                            .dwattr $C$DW$192, DW_AT_name("RESERVED0")
    2692                            .dwattr $C$DW$192, DW_AT_TI_symbol_name("RESERVED0")
    2693                            .dwattr $C$DW$192, DW_AT_data_member_location[DW_OP_plus_uconst 0x0]
    2694                            .dwattr $C$DW$192, DW_AT_accessibility(DW_ACCESS_public)
    2695                            .dwattr $C$DW$192, DW_AT_decl_file("C:/ti/ccsv7/ccs_base/arm/include/CMSIS/core_cm4.h")
    2696                            .dwattr $C$DW$192, DW_AT_decl_line(0x2cf)
    2697                            .dwattr $C$DW$192, DW_AT_decl_column(0x12)
    2698                    
    2699                    $C$DW$193       .dwtag  DW_TAG_member
    2700                            .dwattr $C$DW$193, DW_AT_type(*$C$DW$T$21)
    2701                            .dwattr $C$DW$193, DW_AT_name("ICTR")
    2702                            .dwattr $C$DW$193, DW_AT_TI_symbol_name("ICTR")
    2703                            .dwattr $C$DW$193, DW_AT_data_member_location[DW_OP_plus_uconst 0x4]
    2704                            .dwattr $C$DW$193, DW_AT_accessibility(DW_ACCESS_public)
    2705                            .dwattr $C$DW$193, DW_AT_decl_file("C:/ti/ccsv7/ccs_base/arm/include/CMSIS/core_cm4.h")
    2706                            .dwattr $C$DW$193, DW_AT_decl_line(0x2d0)
    2707                            .dwattr $C$DW$193, DW_AT_decl_column(0x12)
    2708                    
    2709                    $C$DW$194       .dwtag  DW_TAG_member
    2710                            .dwattr $C$DW$194, DW_AT_type(*$C$DW$T$20)
    2711                            .dwattr $C$DW$194, DW_AT_name("ACTLR")
    2712                            .dwattr $C$DW$194, DW_AT_TI_symbol_name("ACTLR")
    2713                            .dwattr $C$DW$194, DW_AT_data_member_location[DW_OP_plus_uconst 0x8]
    2714                            .dwattr $C$DW$194, DW_AT_accessibility(DW_ACCESS_public)
    2715                            .dwattr $C$DW$194, DW_AT_decl_file("C:/ti/ccsv7/ccs_base/arm/include/CMSIS/core_cm4.h")
    2716                            .dwattr $C$DW$194, DW_AT_decl_line(0x2d1)
    2717                            .dwattr $C$DW$194, DW_AT_decl_column(0x12)
    2718                    
    2719                            .dwattr $C$DW$T$60, DW_AT_decl_file("C:/ti/ccsv7/ccs_base/arm/include/CMSIS/core_cm4.h")
    2720                            .dwattr $C$DW$T$60, DW_AT_decl_line(0x2ce)
    2721                            .dwattr $C$DW$T$60, DW_AT_decl_column(0x01)
    2722                            .dwendtag $C$DW$T$60
    2723                    
    2724                    $C$DW$T$182     .dwtag  DW_TAG_typedef
    2725                            .dwattr $C$DW$T$182, DW_AT_name("SCnSCB_Type")
TI ARM Assembler PC v16.9.6 Fri Mar 20 15:43:33 2026

Tools Copyright (c) 1996-2017 Texas Instruments Incorporated
Clock.asm                                                            PAGE   51

    2726                            .dwattr $C$DW$T$182, DW_AT_type(*$C$DW$T$60)
    2727                            .dwattr $C$DW$T$182, DW_AT_language(DW_LANG_C)
    2728                            .dwattr $C$DW$T$182, DW_AT_decl_file("C:/ti/ccsv7/ccs_base/arm/include/CMSIS/core_cm4.h")
    2729                            .dwattr $C$DW$T$182, DW_AT_decl_line(0x2d2)
    2730                            .dwattr $C$DW$T$182, DW_AT_decl_column(0x03)
    2731                    
    2732                    
    2733                    $C$DW$T$61      .dwtag  DW_TAG_structure_type
    2734                            .dwattr $C$DW$T$61, DW_AT_byte_size(0x10)
    2735                    $C$DW$195       .dwtag  DW_TAG_member
    2736                            .dwattr $C$DW$195, DW_AT_type(*$C$DW$T$20)
    2737                            .dwattr $C$DW$195, DW_AT_name("CTRL")
    2738                            .dwattr $C$DW$195, DW_AT_TI_symbol_name("CTRL")
    2739                            .dwattr $C$DW$195, DW_AT_data_member_location[DW_OP_plus_uconst 0x0]
    2740                            .dwattr $C$DW$195, DW_AT_accessibility(DW_ACCESS_public)
    2741                            .dwattr $C$DW$195, DW_AT_decl_file("C:/ti/ccsv7/ccs_base/arm/include/CMSIS/core_cm4.h")
    2742                            .dwattr $C$DW$195, DW_AT_decl_line(0x2f7)
    2743                            .dwattr $C$DW$195, DW_AT_decl_column(0x12)
    2744                    
    2745                    $C$DW$196       .dwtag  DW_TAG_member
    2746                            .dwattr $C$DW$196, DW_AT_type(*$C$DW$T$20)
    2747                            .dwattr $C$DW$196, DW_AT_name("LOAD")
    2748                            .dwattr $C$DW$196, DW_AT_TI_symbol_name("LOAD")
    2749                            .dwattr $C$DW$196, DW_AT_data_member_location[DW_OP_plus_uconst 0x4]
    2750                            .dwattr $C$DW$196, DW_AT_accessibility(DW_ACCESS_public)
    2751                            .dwattr $C$DW$196, DW_AT_decl_file("C:/ti/ccsv7/ccs_base/arm/include/CMSIS/core_cm4.h")
    2752                            .dwattr $C$DW$196, DW_AT_decl_line(0x2f8)
    2753                            .dwattr $C$DW$196, DW_AT_decl_column(0x12)
    2754                    
    2755                    $C$DW$197       .dwtag  DW_TAG_member
    2756                            .dwattr $C$DW$197, DW_AT_type(*$C$DW$T$20)
    2757                            .dwattr $C$DW$197, DW_AT_name("VAL")
    2758                            .dwattr $C$DW$197, DW_AT_TI_symbol_name("VAL")
    2759                            .dwattr $C$DW$197, DW_AT_data_member_location[DW_OP_plus_uconst 0x8]
    2760                            .dwattr $C$DW$197, DW_AT_accessibility(DW_ACCESS_public)
    2761                            .dwattr $C$DW$197, DW_AT_decl_file("C:/ti/ccsv7/ccs_base/arm/include/CMSIS/core_cm4.h")
    2762                            .dwattr $C$DW$197, DW_AT_decl_line(0x2f9)
    2763                            .dwattr $C$DW$197, DW_AT_decl_column(0x12)
    2764                    
    2765                    $C$DW$198       .dwtag  DW_TAG_member
    2766                            .dwattr $C$DW$198, DW_AT_type(*$C$DW$T$21)
    2767                            .dwattr $C$DW$198, DW_AT_name("CALIB")
    2768                            .dwattr $C$DW$198, DW_AT_TI_symbol_name("CALIB")
    2769                            .dwattr $C$DW$198, DW_AT_data_member_location[DW_OP_plus_uconst 0xc]
    2770                            .dwattr $C$DW$198, DW_AT_accessibility(DW_ACCESS_public)
    2771                            .dwattr $C$DW$198, DW_AT_decl_file("C:/ti/ccsv7/ccs_base/arm/include/CMSIS/core_cm4.h")
    2772                            .dwattr $C$DW$198, DW_AT_decl_line(0x2fa)
    2773                            .dwattr $C$DW$198, DW_AT_decl_column(0x12)
    2774                    
    2775                            .dwattr $C$DW$T$61, DW_AT_decl_file("C:/ti/ccsv7/ccs_base/arm/include/CMSIS/core_cm4.h")
    2776                            .dwattr $C$DW$T$61, DW_AT_decl_line(0x2f6)
    2777                            .dwattr $C$DW$T$61, DW_AT_decl_column(0x01)
    2778                            .dwendtag $C$DW$T$61
    2779                    
    2780                    $C$DW$T$183     .dwtag  DW_TAG_typedef
TI ARM Assembler PC v16.9.6 Fri Mar 20 15:43:33 2026

Tools Copyright (c) 1996-2017 Texas Instruments Incorporated
Clock.asm                                                            PAGE   52

    2781                            .dwattr $C$DW$T$183, DW_AT_name("SysTick_Type")
    2782                            .dwattr $C$DW$T$183, DW_AT_type(*$C$DW$T$61)
    2783                            .dwattr $C$DW$T$183, DW_AT_language(DW_LANG_C)
    2784                            .dwattr $C$DW$T$183, DW_AT_decl_file("C:/ti/ccsv7/ccs_base/arm/include/CMSIS/core_cm4.h")
    2785                            .dwattr $C$DW$T$183, DW_AT_decl_line(0x2fb)
    2786                            .dwattr $C$DW$T$183, DW_AT_decl_column(0x03)
    2787                    
    2788                    
    2789                    $C$DW$T$69      .dwtag  DW_TAG_structure_type
    2790                            .dwattr $C$DW$T$69, DW_AT_byte_size(0x1000)
    2791                    $C$DW$199       .dwtag  DW_TAG_member
    2792                            .dwattr $C$DW$199, DW_AT_type(*$C$DW$T$63)
    2793                            .dwattr $C$DW$199, DW_AT_name("PORT")
    2794                            .dwattr $C$DW$199, DW_AT_TI_symbol_name("PORT")
    2795                            .dwattr $C$DW$199, DW_AT_data_member_location[DW_OP_plus_uconst 0x0]
    2796                            .dwattr $C$DW$199, DW_AT_accessibility(DW_ACCESS_public)
    2797                            .dwattr $C$DW$199, DW_AT_decl_file("C:/ti/ccsv7/ccs_base/arm/include/CMSIS/core_cm4.h")
    2798                            .dwattr $C$DW$199, DW_AT_decl_line(0x330)
    2799                            .dwattr $C$DW$199, DW_AT_decl_column(0x06)
    2800                    
    2801                    $C$DW$200       .dwtag  DW_TAG_member
    2802                            .dwattr $C$DW$200, DW_AT_type(*$C$DW$T$64)
    2803                            .dwattr $C$DW$200, DW_AT_name("RESERVED0")
    2804                            .dwattr $C$DW$200, DW_AT_TI_symbol_name("RESERVED0")
    2805                            .dwattr $C$DW$200, DW_AT_data_member_location[DW_OP_plus_uconst 0x80]
    2806                            .dwattr $C$DW$200, DW_AT_accessibility(DW_ACCESS_public)
    2807                            .dwattr $C$DW$200, DW_AT_decl_file("C:/ti/ccsv7/ccs_base/arm/include/CMSIS/core_cm4.h")
    2808                            .dwattr $C$DW$200, DW_AT_decl_line(0x331)
    2809                            .dwattr $C$DW$200, DW_AT_decl_column(0x12)
    2810                    
    2811                    $C$DW$201       .dwtag  DW_TAG_member
    2812                            .dwattr $C$DW$201, DW_AT_type(*$C$DW$T$20)
    2813                            .dwattr $C$DW$201, DW_AT_name("TER")
    2814                            .dwattr $C$DW$201, DW_AT_TI_symbol_name("TER")
    2815                            .dwattr $C$DW$201, DW_AT_data_member_location[DW_OP_plus_uconst 0xe00]
    2816                            .dwattr $C$DW$201, DW_AT_accessibility(DW_ACCESS_public)
    2817                            .dwattr $C$DW$201, DW_AT_decl_file("C:/ti/ccsv7/ccs_base/arm/include/CMSIS/core_cm4.h")
    2818                            .dwattr $C$DW$201, DW_AT_decl_line(0x332)
    2819                            .dwattr $C$DW$201, DW_AT_decl_column(0x12)
    2820                    
    2821                    $C$DW$202       .dwtag  DW_TAG_member
    2822                            .dwattr $C$DW$202, DW_AT_type(*$C$DW$T$65)
    2823                            .dwattr $C$DW$202, DW_AT_name("RESERVED1")
    2824                            .dwattr $C$DW$202, DW_AT_TI_symbol_name("RESERVED1")
    2825                            .dwattr $C$DW$202, DW_AT_data_member_location[DW_OP_plus_uconst 0xe04]
    2826                            .dwattr $C$DW$202, DW_AT_accessibility(DW_ACCESS_public)
    2827                            .dwattr $C$DW$202, DW_AT_decl_file("C:/ti/ccsv7/ccs_base/arm/include/CMSIS/core_cm4.h")
    2828                            .dwattr $C$DW$202, DW_AT_decl_line(0x333)
    2829                            .dwattr $C$DW$202, DW_AT_decl_column(0x12)
    2830                    
    2831                    $C$DW$203       .dwtag  DW_TAG_member
    2832                            .dwattr $C$DW$203, DW_AT_type(*$C$DW$T$20)
    2833                            .dwattr $C$DW$203, DW_AT_name("TPR")
    2834                            .dwattr $C$DW$203, DW_AT_TI_symbol_name("TPR")
    2835                            .dwattr $C$DW$203, DW_AT_data_member_location[DW_OP_plus_uconst 0xe40]
TI ARM Assembler PC v16.9.6 Fri Mar 20 15:43:33 2026

Tools Copyright (c) 1996-2017 Texas Instruments Incorporated
Clock.asm                                                            PAGE   53

    2836                            .dwattr $C$DW$203, DW_AT_accessibility(DW_ACCESS_public)
    2837                            .dwattr $C$DW$203, DW_AT_decl_file("C:/ti/ccsv7/ccs_base/arm/include/CMSIS/core_cm4.h")
    2838                            .dwattr $C$DW$203, DW_AT_decl_line(0x334)
    2839                            .dwattr $C$DW$203, DW_AT_decl_column(0x12)
    2840                    
    2841                    $C$DW$204       .dwtag  DW_TAG_member
    2842                            .dwattr $C$DW$204, DW_AT_type(*$C$DW$T$65)
    2843                            .dwattr $C$DW$204, DW_AT_name("RESERVED2")
    2844                            .dwattr $C$DW$204, DW_AT_TI_symbol_name("RESERVED2")
    2845                            .dwattr $C$DW$204, DW_AT_data_member_location[DW_OP_plus_uconst 0xe44]
    2846                            .dwattr $C$DW$204, DW_AT_accessibility(DW_ACCESS_public)
    2847                            .dwattr $C$DW$204, DW_AT_decl_file("C:/ti/ccsv7/ccs_base/arm/include/CMSIS/core_cm4.h")
    2848                            .dwattr $C$DW$204, DW_AT_decl_line(0x335)
    2849                            .dwattr $C$DW$204, DW_AT_decl_column(0x12)
    2850                    
    2851                    $C$DW$205       .dwtag  DW_TAG_member
    2852                            .dwattr $C$DW$205, DW_AT_type(*$C$DW$T$20)
    2853                            .dwattr $C$DW$205, DW_AT_name("TCR")
    2854                            .dwattr $C$DW$205, DW_AT_TI_symbol_name("TCR")
    2855                            .dwattr $C$DW$205, DW_AT_data_member_location[DW_OP_plus_uconst 0xe80]
    2856                            .dwattr $C$DW$205, DW_AT_accessibility(DW_ACCESS_public)
    2857                            .dwattr $C$DW$205, DW_AT_decl_file("C:/ti/ccsv7/ccs_base/arm/include/CMSIS/core_cm4.h")
    2858                            .dwattr $C$DW$205, DW_AT_decl_line(0x336)
    2859                            .dwattr $C$DW$205, DW_AT_decl_column(0x12)
    2860                    
    2861                    $C$DW$206       .dwtag  DW_TAG_member
    2862                            .dwattr $C$DW$206, DW_AT_type(*$C$DW$T$66)
    2863                            .dwattr $C$DW$206, DW_AT_name("RESERVED3")
    2864                            .dwattr $C$DW$206, DW_AT_TI_symbol_name("RESERVED3")
    2865                            .dwattr $C$DW$206, DW_AT_data_member_location[DW_OP_plus_uconst 0xe84]
    2866                            .dwattr $C$DW$206, DW_AT_accessibility(DW_ACCESS_public)
    2867                            .dwattr $C$DW$206, DW_AT_decl_file("C:/ti/ccsv7/ccs_base/arm/include/CMSIS/core_cm4.h")
    2868                            .dwattr $C$DW$206, DW_AT_decl_line(0x337)
    2869                            .dwattr $C$DW$206, DW_AT_decl_column(0x12)
    2870                    
    2871                    $C$DW$207       .dwtag  DW_TAG_member
    2872                            .dwattr $C$DW$207, DW_AT_type(*$C$DW$T$20)
    2873                            .dwattr $C$DW$207, DW_AT_name("IWR")
    2874                            .dwattr $C$DW$207, DW_AT_TI_symbol_name("IWR")
    2875                            .dwattr $C$DW$207, DW_AT_data_member_location[DW_OP_plus_uconst 0xef8]
    2876                            .dwattr $C$DW$207, DW_AT_accessibility(DW_ACCESS_public)
    2877                            .dwattr $C$DW$207, DW_AT_decl_file("C:/ti/ccsv7/ccs_base/arm/include/CMSIS/core_cm4.h")
    2878                            .dwattr $C$DW$207, DW_AT_decl_line(0x338)
    2879                            .dwattr $C$DW$207, DW_AT_decl_column(0x12)
    2880                    
    2881                    $C$DW$208       .dwtag  DW_TAG_member
    2882                            .dwattr $C$DW$208, DW_AT_type(*$C$DW$T$21)
    2883                            .dwattr $C$DW$208, DW_AT_name("IRR")
    2884                            .dwattr $C$DW$208, DW_AT_TI_symbol_name("IRR")
    2885                            .dwattr $C$DW$208, DW_AT_data_member_location[DW_OP_plus_uconst 0xefc]
    2886                            .dwattr $C$DW$208, DW_AT_accessibility(DW_ACCESS_public)
    2887                            .dwattr $C$DW$208, DW_AT_decl_file("C:/ti/ccsv7/ccs_base/arm/include/CMSIS/core_cm4.h")
    2888                            .dwattr $C$DW$208, DW_AT_decl_line(0x339)
    2889                            .dwattr $C$DW$208, DW_AT_decl_column(0x12)
    2890                    
TI ARM Assembler PC v16.9.6 Fri Mar 20 15:43:33 2026

Tools Copyright (c) 1996-2017 Texas Instruments Incorporated
Clock.asm                                                            PAGE   54

    2891                    $C$DW$209       .dwtag  DW_TAG_member
    2892                            .dwattr $C$DW$209, DW_AT_type(*$C$DW$T$20)
    2893                            .dwattr $C$DW$209, DW_AT_name("IMCR")
    2894                            .dwattr $C$DW$209, DW_AT_TI_symbol_name("IMCR")
    2895                            .dwattr $C$DW$209, DW_AT_data_member_location[DW_OP_plus_uconst 0xf00]
    2896                            .dwattr $C$DW$209, DW_AT_accessibility(DW_ACCESS_public)
    2897                            .dwattr $C$DW$209, DW_AT_decl_file("C:/ti/ccsv7/ccs_base/arm/include/CMSIS/core_cm4.h")
    2898                            .dwattr $C$DW$209, DW_AT_decl_line(0x33a)
    2899                            .dwattr $C$DW$209, DW_AT_decl_column(0x12)
    2900                    
    2901                    $C$DW$210       .dwtag  DW_TAG_member
    2902                            .dwattr $C$DW$210, DW_AT_type(*$C$DW$T$67)
    2903                            .dwattr $C$DW$210, DW_AT_name("RESERVED4")
    2904                            .dwattr $C$DW$210, DW_AT_TI_symbol_name("RESERVED4")
    2905                            .dwattr $C$DW$210, DW_AT_data_member_location[DW_OP_plus_uconst 0xf04]
    2906                            .dwattr $C$DW$210, DW_AT_accessibility(DW_ACCESS_public)
    2907                            .dwattr $C$DW$210, DW_AT_decl_file("C:/ti/ccsv7/ccs_base/arm/include/CMSIS/core_cm4.h")
    2908                            .dwattr $C$DW$210, DW_AT_decl_line(0x33b)
    2909                            .dwattr $C$DW$210, DW_AT_decl_column(0x12)
    2910                    
    2911                    $C$DW$211       .dwtag  DW_TAG_member
    2912                            .dwattr $C$DW$211, DW_AT_type(*$C$DW$T$20)
    2913                            .dwattr $C$DW$211, DW_AT_name("LAR")
    2914                            .dwattr $C$DW$211, DW_AT_TI_symbol_name("LAR")
    2915                            .dwattr $C$DW$211, DW_AT_data_member_location[DW_OP_plus_uconst 0xfb0]
    2916                            .dwattr $C$DW$211, DW_AT_accessibility(DW_ACCESS_public)
    2917                            .dwattr $C$DW$211, DW_AT_decl_file("C:/ti/ccsv7/ccs_base/arm/include/CMSIS/core_cm4.h")
    2918                            .dwattr $C$DW$211, DW_AT_decl_line(0x33c)
    2919                            .dwattr $C$DW$211, DW_AT_decl_column(0x12)
    2920                    
    2921                    $C$DW$212       .dwtag  DW_TAG_member
    2922                            .dwattr $C$DW$212, DW_AT_type(*$C$DW$T$21)
    2923                            .dwattr $C$DW$212, DW_AT_name("LSR")
    2924                            .dwattr $C$DW$212, DW_AT_TI_symbol_name("LSR")
    2925                            .dwattr $C$DW$212, DW_AT_data_member_location[DW_OP_plus_uconst 0xfb4]
    2926                            .dwattr $C$DW$212, DW_AT_accessibility(DW_ACCESS_public)
    2927                            .dwattr $C$DW$212, DW_AT_decl_file("C:/ti/ccsv7/ccs_base/arm/include/CMSIS/core_cm4.h")
    2928                            .dwattr $C$DW$212, DW_AT_decl_line(0x33d)
    2929                            .dwattr $C$DW$212, DW_AT_decl_column(0x12)
    2930                    
    2931                    $C$DW$213       .dwtag  DW_TAG_member
    2932                            .dwattr $C$DW$213, DW_AT_type(*$C$DW$T$68)
    2933                            .dwattr $C$DW$213, DW_AT_name("RESERVED5")
    2934                            .dwattr $C$DW$213, DW_AT_TI_symbol_name("RESERVED5")
    2935                            .dwattr $C$DW$213, DW_AT_data_member_location[DW_OP_plus_uconst 0xfb8]
    2936                            .dwattr $C$DW$213, DW_AT_accessibility(DW_ACCESS_public)
    2937                            .dwattr $C$DW$213, DW_AT_decl_file("C:/ti/ccsv7/ccs_base/arm/include/CMSIS/core_cm4.h")
    2938                            .dwattr $C$DW$213, DW_AT_decl_line(0x33e)
    2939                            .dwattr $C$DW$213, DW_AT_decl_column(0x12)
    2940                    
    2941                    $C$DW$214       .dwtag  DW_TAG_member
    2942                            .dwattr $C$DW$214, DW_AT_type(*$C$DW$T$21)
    2943                            .dwattr $C$DW$214, DW_AT_name("PID4")
    2944                            .dwattr $C$DW$214, DW_AT_TI_symbol_name("PID4")
    2945                            .dwattr $C$DW$214, DW_AT_data_member_location[DW_OP_plus_uconst 0xfd0]
TI ARM Assembler PC v16.9.6 Fri Mar 20 15:43:33 2026

Tools Copyright (c) 1996-2017 Texas Instruments Incorporated
Clock.asm                                                            PAGE   55

    2946                            .dwattr $C$DW$214, DW_AT_accessibility(DW_ACCESS_public)
    2947                            .dwattr $C$DW$214, DW_AT_decl_file("C:/ti/ccsv7/ccs_base/arm/include/CMSIS/core_cm4.h")
    2948                            .dwattr $C$DW$214, DW_AT_decl_line(0x33f)
    2949                            .dwattr $C$DW$214, DW_AT_decl_column(0x12)
    2950                    
    2951                    $C$DW$215       .dwtag  DW_TAG_member
    2952                            .dwattr $C$DW$215, DW_AT_type(*$C$DW$T$21)
    2953                            .dwattr $C$DW$215, DW_AT_name("PID5")
